ARM GAS  C:\Users\andywei\AppData\Local\Temp\cceSbkxQ.s 			page 1


   1              		.cpu cortex-m4
   2              		.eabi_attribute 27, 1
   3              		.eabi_attribute 28, 1
   4              		.eabi_attribute 20, 1
   5              		.eabi_attribute 21, 1
   6              		.eabi_attribute 23, 3
   7              		.eabi_attribute 24, 1
   8              		.eabi_attribute 25, 1
   9              		.eabi_attribute 26, 1
  10              		.eabi_attribute 30, 1
  11              		.eabi_attribute 34, 1
  12              		.eabi_attribute 18, 4
  13              		.file	"app_led.c"
  14              		.text
  15              	.Ltext0:
  16              		.cfi_sections	.debug_frame
  17              		.section	.text.LED_Init,"ax",%progbits
  18              		.align	1
  19              		.global	LED_Init
  20              		.arch armv7e-m
  21              		.syntax unified
  22              		.thumb
  23              		.thumb_func
  24              		.fpu fpv4-sp-d16
  26              	LED_Init:
  27              	.LFB135:
  28              		.file 1 "Src/APP/app_led.c"
   1:Src/APP/app_led.c **** 
   2:Src/APP/app_led.c **** 
   3:Src/APP/app_led.c **** 
   4:Src/APP/app_led.c **** #include <stdio.h>
   5:Src/APP/app_led.c **** #include "sys_command_line.h"
   6:Src/APP/app_led.c **** #include "sys_queue.h"
   7:Src/APP/app_led.c **** #include "app_led.h"
   8:Src/APP/app_led.c **** #include "main.h"
   9:Src/APP/app_led.c **** 
  10:Src/APP/app_led.c **** /**
  11:Src/APP/app_led.c ****  * @brief  LED init
  12:Src/APP/app_led.c ****  * @param  нч
  13:Src/APP/app_led.c ****  * @retval нч
  14:Src/APP/app_led.c ****  */
  15:Src/APP/app_led.c **** void LED_Init(void)
  16:Src/APP/app_led.c **** {
  29              		.loc 1 16 1 view -0
  30              		.cfi_startproc
  31              		@ args = 0, pretend = 0, frame = 0
  32              		@ frame_needed = 0, uses_anonymous_args = 0
  33              		@ link register save eliminated.
  17:Src/APP/app_led.c ****     //LED_GPIO_Config();
  18:Src/APP/app_led.c **** }
  34              		.loc 1 18 1 view .LVU1
  35 0000 7047     		bx	lr
  36              		.cfi_endproc
  37              	.LFE135:
  39              		.section	.text.CLI_LED_Init,"ax",%progbits
  40              		.align	1
  41              		.global	CLI_LED_Init
ARM GAS  C:\Users\andywei\AppData\Local\Temp\cceSbkxQ.s 			page 2


  42              		.syntax unified
  43              		.thumb
  44              		.thumb_func
  45              		.fpu fpv4-sp-d16
  47              	CLI_LED_Init:
  48              	.LFB136:
  19:Src/APP/app_led.c **** 
  20:Src/APP/app_led.c **** 
  21:Src/APP/app_led.c **** /**
  22:Src/APP/app_led.c ****  * @brief  LED command init
  23:Src/APP/app_led.c ****  * @param  null
  24:Src/APP/app_led.c ****  * @retval return True means ok
  25:Src/APP/app_led.c ****  */
  26:Src/APP/app_led.c **** uint8_t CLI_LED_Init(void)
  27:Src/APP/app_led.c **** {
  49              		.loc 1 27 1 view -0
  50              		.cfi_startproc
  51              		@ args = 0, pretend = 0, frame = 0
  52              		@ frame_needed = 0, uses_anonymous_args = 0
  53              		@ link register save eliminated.
  28:Src/APP/app_led.c ****     LED_Init();
  54              		.loc 1 28 5 view .LVU3
  29:Src/APP/app_led.c **** 
  30:Src/APP/app_led.c ****     return TRUE;
  55              		.loc 1 30 5 view .LVU4
  31:Src/APP/app_led.c **** }
  56              		.loc 1 31 1 is_stmt 0 view .LVU5
  57 0000 0120     		movs	r0, #1
  58 0002 7047     		bx	lr
  59              		.cfi_endproc
  60              	.LFE136:
  62              		.section	.rodata.CLI_LED.str1.4,"aMS",%progbits,1
  63              		.align	2
  64              	.LC0:
  65 0000 0D00     		.ascii	"\015\000"
  66 0002 0000     		.align	2
  67              	.LC1:
  68 0004 1B5B313B 		.ascii	"\033[1;33m\000"
  68      33336D00 
  69              		.align	2
  70              	.LC2:
  71 000c 5B446562 		.ascii	"[Debug] %s(%d): led on\015\012\015\012\000"
  71      75675D20 
  71      25732825 
  71      64293A20 
  71      6C656420 
  72 0027 00       		.align	2
  73              	.LC3:
  74 0028 1B5B313B 		.ascii	"\033[1;32m\000"
  74      33326D00 
  75              		.align	2
  76              	.LC4:
  77 0030 5B446562 		.ascii	"[Debug] %s(%d): led off\015\012\015\012\000"
  77      75675D20 
  77      25732825 
  77      64293A20 
  77      6C656420 
ARM GAS  C:\Users\andywei\AppData\Local\Temp\cceSbkxQ.s 			page 3


  78              		.section	.text.CLI_LED,"ax",%progbits
  79              		.align	1
  80              		.global	CLI_LED
  81              		.syntax unified
  82              		.thumb
  83              		.thumb_func
  84              		.fpu fpv4-sp-d16
  86              	CLI_LED:
  87              	.LVL0:
  88              	.LFB137:
  32:Src/APP/app_led.c **** 
  33:Src/APP/app_led.c **** 
  34:Src/APP/app_led.c **** /**
  35:Src/APP/app_led.c ****  * @brief  LED command line
  36:Src/APP/app_led.c ****  * @param  null
  37:Src/APP/app_led.c ****  * @retval null
  38:Src/APP/app_led.c ****  */
  39:Src/APP/app_led.c **** uint8_t CLI_LED(void *para, uint8_t len)
  40:Src/APP/app_led.c **** {
  89              		.loc 1 40 1 is_stmt 1 view -0
  90              		.cfi_startproc
  91              		@ args = 0, pretend = 0, frame = 0
  92              		@ frame_needed = 0, uses_anonymous_args = 0
  41:Src/APP/app_led.c ****     uint8_t *pTemp;
  93              		.loc 1 41 5 view .LVU7
  42:Src/APP/app_led.c ****     pTemp = (uint8_t *)para;
  94              		.loc 1 42 5 view .LVU8
  43:Src/APP/app_led.c ****     if ((0 < len) && (NULL != pTemp)) {
  95              		.loc 1 43 5 view .LVU9
  96              		.loc 1 43 8 is_stmt 0 view .LVU10
  97 0000 41B3     		cbz	r1, .L6
  98              		.loc 1 43 19 discriminator 1 view .LVU11
  99 0002 48B3     		cbz	r0, .L7
  40:Src/APP/app_led.c ****     uint8_t *pTemp;
 100              		.loc 1 40 1 view .LVU12
 101 0004 08B5     		push	{r3, lr}
 102              	.LCFI0:
 103              		.cfi_def_cfa_offset 8
 104              		.cfi_offset 3, -8
 105              		.cfi_offset 14, -4
  44:Src/APP/app_led.c ****         pTemp++; /* skip a blank space */
 106              		.loc 1 44 9 is_stmt 1 view .LVU13
 107              	.LVL1:
  45:Src/APP/app_led.c ****         if ('1' == *pTemp) {
 108              		.loc 1 45 9 view .LVU14
 109              		.loc 1 45 20 is_stmt 0 view .LVU15
 110 0006 4378     		ldrb	r3, [r0, #1]	@ zero_extendqisi2
 111              		.loc 1 45 12 view .LVU16
 112 0008 312B     		cmp	r3, #49
 113 000a 03D0     		beq	.L13
  46:Src/APP/app_led.c ****             /* LED ON */
  47:Src/APP/app_led.c ****             //LED1_ON;
  48:Src/APP/app_led.c ****             NL1();
  49:Src/APP/app_led.c ****             DBG("led on\r\n");
  50:Src/APP/app_led.c ****         } else if ('0' == *pTemp) {
 114              		.loc 1 50 16 is_stmt 1 view .LVU17
 115              		.loc 1 50 19 is_stmt 0 view .LVU18
ARM GAS  C:\Users\andywei\AppData\Local\Temp\cceSbkxQ.s 			page 4


 116 000c 302B     		cmp	r3, #48
 117 000e 11D0     		beq	.L14
  51:Src/APP/app_led.c ****             /* LED OFF */
  52:Src/APP/app_led.c ****             //LED1_OFF;
  53:Src/APP/app_led.c ****             NL1();
  54:Src/APP/app_led.c ****             DBG("led off\r\n");
  55:Src/APP/app_led.c ****         } else {
  56:Src/APP/app_led.c ****             /* para. wrong */
  57:Src/APP/app_led.c ****             return FALSE;
 118              		.loc 1 57 20 view .LVU19
 119 0010 0020     		movs	r0, #0
 120              	.LVL2:
 121              	.L4:
  58:Src/APP/app_led.c ****         }
  59:Src/APP/app_led.c ****     }
  60:Src/APP/app_led.c **** 
  61:Src/APP/app_led.c ****     /* led command ok */
  62:Src/APP/app_led.c ****     return TRUE;
  63:Src/APP/app_led.c **** }
 122              		.loc 1 63 1 view .LVU20
 123 0012 08BD     		pop	{r3, pc}
 124              	.LVL3:
 125              	.L13:
  48:Src/APP/app_led.c ****             DBG("led on\r\n");
 126              		.loc 1 48 13 is_stmt 1 view .LVU21
  48:Src/APP/app_led.c ****             DBG("led on\r\n");
 127              		.loc 1 48 13 view .LVU22
 128 0014 1148     		ldr	r0, .L15
 129              	.LVL4:
  48:Src/APP/app_led.c ****             DBG("led on\r\n");
 130              		.loc 1 48 13 is_stmt 0 view .LVU23
 131 0016 FFF7FEFF 		bl	puts
 132              	.LVL5:
  48:Src/APP/app_led.c ****             DBG("led on\r\n");
 133              		.loc 1 48 13 is_stmt 1 view .LVU24
  49:Src/APP/app_led.c ****         } else if ('0' == *pTemp) {
 134              		.loc 1 49 13 view .LVU25
  49:Src/APP/app_led.c ****         } else if ('0' == *pTemp) {
 135              		.loc 1 49 13 view .LVU26
 136 001a 1148     		ldr	r0, .L15+4
 137 001c FFF7FEFF 		bl	printf
 138              	.LVL6:
  49:Src/APP/app_led.c ****         } else if ('0' == *pTemp) {
 139              		.loc 1 49 13 view .LVU27
 140 0020 3122     		movs	r2, #49
 141 0022 1049     		ldr	r1, .L15+8
 142 0024 1048     		ldr	r0, .L15+12
 143 0026 FFF7FEFF 		bl	printf
 144              	.LVL7:
  49:Src/APP/app_led.c ****         } else if ('0' == *pTemp) {
 145              		.loc 1 49 13 view .LVU28
 146 002a 1048     		ldr	r0, .L15+16
 147 002c FFF7FEFF 		bl	printf
 148              	.LVL8:
  49:Src/APP/app_led.c ****         } else if ('0' == *pTemp) {
 149              		.loc 1 49 13 view .LVU29
  62:Src/APP/app_led.c **** }
ARM GAS  C:\Users\andywei\AppData\Local\Temp\cceSbkxQ.s 			page 5


 150              		.loc 1 62 12 is_stmt 0 view .LVU30
 151 0030 0120     		movs	r0, #1
 152 0032 EEE7     		b	.L4
 153              	.LVL9:
 154              	.L14:
  53:Src/APP/app_led.c ****             DBG("led off\r\n");
 155              		.loc 1 53 13 is_stmt 1 view .LVU31
  53:Src/APP/app_led.c ****             DBG("led off\r\n");
 156              		.loc 1 53 13 view .LVU32
 157 0034 0948     		ldr	r0, .L15
 158              	.LVL10:
  53:Src/APP/app_led.c ****             DBG("led off\r\n");
 159              		.loc 1 53 13 is_stmt 0 view .LVU33
 160 0036 FFF7FEFF 		bl	puts
 161              	.LVL11:
  53:Src/APP/app_led.c ****             DBG("led off\r\n");
 162              		.loc 1 53 13 is_stmt 1 view .LVU34
  54:Src/APP/app_led.c ****         } else {
 163              		.loc 1 54 13 view .LVU35
  54:Src/APP/app_led.c ****         } else {
 164              		.loc 1 54 13 view .LVU36
 165 003a 0948     		ldr	r0, .L15+4
 166 003c FFF7FEFF 		bl	printf
 167              	.LVL12:
  54:Src/APP/app_led.c ****         } else {
 168              		.loc 1 54 13 view .LVU37
 169 0040 3622     		movs	r2, #54
 170 0042 0849     		ldr	r1, .L15+8
 171 0044 0A48     		ldr	r0, .L15+20
 172 0046 FFF7FEFF 		bl	printf
 173              	.LVL13:
  54:Src/APP/app_led.c ****         } else {
 174              		.loc 1 54 13 view .LVU38
 175 004a 0848     		ldr	r0, .L15+16
 176 004c FFF7FEFF 		bl	printf
 177              	.LVL14:
  54:Src/APP/app_led.c ****         } else {
 178              		.loc 1 54 13 view .LVU39
  62:Src/APP/app_led.c **** }
 179              		.loc 1 62 12 is_stmt 0 view .LVU40
 180 0050 0120     		movs	r0, #1
 181 0052 DEE7     		b	.L4
 182              	.LVL15:
 183              	.L6:
 184              	.LCFI1:
 185              		.cfi_def_cfa_offset 0
 186              		.cfi_restore 3
 187              		.cfi_restore 14
  62:Src/APP/app_led.c **** }
 188              		.loc 1 62 12 view .LVU41
 189 0054 0120     		movs	r0, #1
 190              	.LVL16:
  62:Src/APP/app_led.c **** }
 191              		.loc 1 62 12 view .LVU42
 192 0056 7047     		bx	lr
 193              	.LVL17:
 194              	.L7:
ARM GAS  C:\Users\andywei\AppData\Local\Temp\cceSbkxQ.s 			page 6


  62:Src/APP/app_led.c **** }
 195              		.loc 1 62 12 view .LVU43
 196 0058 0120     		movs	r0, #1
 197              	.LVL18:
 198              		.loc 1 63 1 view .LVU44
 199 005a 7047     		bx	lr
 200              	.L16:
 201              		.align	2
 202              	.L15:
 203 005c 00000000 		.word	.LC0
 204 0060 04000000 		.word	.LC1
 205 0064 00000000 		.word	.LANCHOR0
 206 0068 0C000000 		.word	.LC2
 207 006c 28000000 		.word	.LC3
 208 0070 30000000 		.word	.LC4
 209              		.cfi_endproc
 210              	.LFE137:
 212              		.section	.rodata.__FUNCTION__.9986,"a"
 213              		.align	2
 214              		.set	.LANCHOR0,. + 0
 217              	__FUNCTION__.9986:
 218 0000 434C495F 		.ascii	"CLI_LED\000"
 218      4C454400 
 219              		.text
 220              	.Letext0:
 221              		.file 2 "c:\\gnu arm embedded toolchain\\9 2020-q2-update\\arm-none-eabi\\include\\machine\\_defau
 222              		.file 3 "c:\\gnu arm embedded toolchain\\9 2020-q2-update\\lib\\gcc\\arm-none-eabi\\9.3.1\\include
 223              		.file 4 "c:\\gnu arm embedded toolchain\\9 2020-q2-update\\arm-none-eabi\\include\\sys\\_types.h"
 224              		.file 5 "c:\\gnu arm embedded toolchain\\9 2020-q2-update\\arm-none-eabi\\include\\sys\\reent.h"
 225              		.file 6 "c:\\gnu arm embedded toolchain\\9 2020-q2-update\\arm-none-eabi\\include\\sys\\lock.h"
 226              		.file 7 "c:\\gnu arm embedded toolchain\\9 2020-q2-update\\arm-none-eabi\\include\\sys\\_stdint.h"
 227              		.file 8 "c:\\gnu arm embedded toolchain\\9 2020-q2-update\\arm-none-eabi\\include\\ctype.h"
 228              		.file 9 "c:\\gnu arm embedded toolchain\\9 2020-q2-update\\arm-none-eabi\\include\\time.h"
 229              		.file 10 "Drivers/CMSIS/Include/core_cm4.h"
 230              		.file 11 "Drivers/CMSIS/Device/ST/STM32L4xx/Include/system_stm32l4xx.h"
 231              		.file 12 "Drivers/STM32L4xx_HAL_Driver/Inc/stm32l4xx_hal_def.h"
 232              		.file 13 "Drivers/STM32L4xx_HAL_Driver/Inc/stm32l4xx_hal_flash.h"
 233              		.file 14 "Drivers/STM32L4xx_HAL_Driver/Inc/stm32l4xx_hal.h"
 234              		.file 15 "Src/SYS/sys_queue.h"
 235              		.file 16 "Src/SYS/sys_command_line.h"
 236              		.file 17 "<built-in>"
 237              		.file 18 "c:\\gnu arm embedded toolchain\\9 2020-q2-update\\arm-none-eabi\\include\\stdio.h"
ARM GAS  C:\Users\andywei\AppData\Local\Temp\cceSbkxQ.s 			page 7

