ARM GAS  C:\Users\andywei\AppData\Local\Temp\ccli1twA.s 			page 1


   1              		.cpu cortex-m4
   2              		.eabi_attribute 27, 1
   3              		.eabi_attribute 28, 1
   4              		.eabi_attribute 20, 1
   5              		.eabi_attribute 21, 1
   6              		.eabi_attribute 23, 3
   7              		.eabi_attribute 24, 1
   8              		.eabi_attribute 25, 1
   9              		.eabi_attribute 26, 1
  10              		.eabi_attribute 30, 1
  11              		.eabi_attribute 34, 1
  12              		.eabi_attribute 18, 4
  13              		.file	"main.c"
  14              		.text
  15              	.Ltext0:
  16              		.cfi_sections	.debug_frame
  17              		.section	.text.MX_GPIO_Init,"ax",%progbits
  18              		.align	1
  19              		.arch armv7e-m
  20              		.syntax unified
  21              		.thumb
  22              		.thumb_func
  23              		.fpu fpv4-sp-d16
  25              	MX_GPIO_Init:
  26              	.LFB148:
  27              		.file 1 "Src/main.c"
   1:Src/main.c    **** /* USER CODE BEGIN Header */
   2:Src/main.c    **** /**
   3:Src/main.c    ****   ******************************************************************************
   4:Src/main.c    ****   * @file           : main.c
   5:Src/main.c    ****   * @brief          : Main program body
   6:Src/main.c    ****   ******************************************************************************
   7:Src/main.c    ****   * @attention
   8:Src/main.c    ****   *
   9:Src/main.c    ****   * <h2><center>&copy; Copyright (c) 2020 STMicroelectronics.
  10:Src/main.c    ****   * All rights reserved.</center></h2>
  11:Src/main.c    ****   *
  12:Src/main.c    ****   * This software component is licensed by ST under BSD 3-Clause license,
  13:Src/main.c    ****   * the "License"; You may not use this file except in compliance with the
  14:Src/main.c    ****   * License. You may obtain a copy of the License at:
  15:Src/main.c    ****   *                        opensource.org/licenses/BSD-3-Clause
  16:Src/main.c    ****   *
  17:Src/main.c    ****   ******************************************************************************
  18:Src/main.c    ****   */
  19:Src/main.c    **** /* USER CODE END Header */
  20:Src/main.c    **** /* Includes ------------------------------------------------------------------*/
  21:Src/main.c    **** #include "main.h"
  22:Src/main.c    **** 
  23:Src/main.c    **** /* Private includes ----------------------------------------------------------*/
  24:Src/main.c    **** /* USER CODE BEGIN Includes */
  25:Src/main.c    **** #include "CAT_Com.h"
  26:Src/main.c    **** #include "Dut_Com.h"
  27:Src/main.c    **** #include "modbus_master.h"
  28:Src/main.c    **** #include "sys_queue.h"
  29:Src/main.c    **** #include "sys_command_line.h"
  30:Src/main.c    **** /* USER CODE END Includes */
  31:Src/main.c    **** 
ARM GAS  C:\Users\andywei\AppData\Local\Temp\ccli1twA.s 			page 2


  32:Src/main.c    **** /* Private typedef -----------------------------------------------------------*/
  33:Src/main.c    **** /* USER CODE BEGIN PTD */
  34:Src/main.c    **** 
  35:Src/main.c    **** /* USER CODE END PTD */
  36:Src/main.c    **** 
  37:Src/main.c    **** /* Private define ------------------------------------------------------------*/
  38:Src/main.c    **** /* USER CODE BEGIN PD */
  39:Src/main.c    **** /* USER CODE END PD */
  40:Src/main.c    **** 
  41:Src/main.c    **** /* Private macro -------------------------------------------------------------*/
  42:Src/main.c    **** /* USER CODE BEGIN PM */
  43:Src/main.c    **** 
  44:Src/main.c    **** /* USER CODE END PM */
  45:Src/main.c    **** 
  46:Src/main.c    **** /* Private variables ---------------------------------------------------------*/
  47:Src/main.c    **** SPI_HandleTypeDef hspi1;
  48:Src/main.c    **** 
  49:Src/main.c    **** UART_HandleTypeDef huart1;
  50:Src/main.c    **** UART_HandleTypeDef huart2;
  51:Src/main.c    **** 
  52:Src/main.c    **** /* USER CODE BEGIN PV */
  53:Src/main.c    **** uint8_t rx_buffer[20];
  54:Src/main.c    **** /* USER CODE END PV */
  55:Src/main.c    **** 
  56:Src/main.c    **** /* Private function prototypes -----------------------------------------------*/
  57:Src/main.c    **** void SystemClock_Config(void);
  58:Src/main.c    **** static void MX_GPIO_Init(void);
  59:Src/main.c    **** static void MX_SPI1_Init(void);
  60:Src/main.c    **** static void MX_USART1_UART_Init(void);
  61:Src/main.c    **** static void MX_USART2_UART_Init(void);
  62:Src/main.c    **** /* USER CODE BEGIN PFP */
  63:Src/main.c    **** 
  64:Src/main.c    **** /* USER CODE END PFP */
  65:Src/main.c    **** 
  66:Src/main.c    **** /* Private user code ---------------------------------------------------------*/
  67:Src/main.c    **** /* USER CODE BEGIN 0 */
  68:Src/main.c    **** void Delay(__IO uint32_t nCount)	 //delay
  69:Src/main.c    **** {
  70:Src/main.c    ****     for(; nCount != 0; nCount--);
  71:Src/main.c    **** }
  72:Src/main.c    **** void HAL_UART_RxCpltCallback(UART_HandleTypeDef *huart)
  73:Src/main.c    **** {
  74:Src/main.c    ****   // char xx[20];
  75:Src/main.c    ****   // sprintf(xx,"data is %c%c%c%c\n",rx_buffer[0],rx_buffer[1],rx_buffer[2],rx_buffer[3]);
  76:Src/main.c    ****   // Tx_String("receive data form uart\n");
  77:Src/main.c    ****   // Tx_String(xx);
  78:Src/main.c    ****   // Tx_Byte(rx_buffer[0]);
  79:Src/main.c    ****   
  80:Src/main.c    ****   /* save char */
  81:Src/main.c    ****   QUEUE_IN(cli_rx_buff, rx_buffer[0]);
  82:Src/main.c    ****   HAL_UART_Receive_IT(&huart2,rx_buffer,1);
  83:Src/main.c    ****   
  84:Src/main.c    ****   
  85:Src/main.c    **** }
  86:Src/main.c    **** /* USER CODE END 0 */
  87:Src/main.c    **** 
  88:Src/main.c    **** /**
ARM GAS  C:\Users\andywei\AppData\Local\Temp\ccli1twA.s 			page 3


  89:Src/main.c    ****   * @brief  The application entry point.
  90:Src/main.c    ****   * @retval int
  91:Src/main.c    ****   */
  92:Src/main.c    **** int main(void)
  93:Src/main.c    **** {
  94:Src/main.c    ****   /* USER CODE BEGIN 1 */
  95:Src/main.c    ****   uint8_t state=0;
  96:Src/main.c    **** 	uint16_t  Input_Result[2];
  97:Src/main.c    ****   uint8_t result;
  98:Src/main.c    ****   /* USER CODE END 1 */
  99:Src/main.c    **** 
 100:Src/main.c    ****   /* MCU Configuration--------------------------------------------------------*/
 101:Src/main.c    **** 
 102:Src/main.c    ****   /* Reset of all peripherals, Initializes the Flash interface and the Systick. */
 103:Src/main.c    ****   HAL_Init();
 104:Src/main.c    **** 
 105:Src/main.c    ****   /* USER CODE BEGIN Init */
 106:Src/main.c    **** 
 107:Src/main.c    ****   /* USER CODE END Init */
 108:Src/main.c    **** 
 109:Src/main.c    ****   /* Configure the system clock */
 110:Src/main.c    ****   SystemClock_Config();
 111:Src/main.c    **** 
 112:Src/main.c    ****   /* USER CODE BEGIN SysInit */
 113:Src/main.c    ****   ModbusMaster_begin();
 114:Src/main.c    ****   /* USER CODE END SysInit */
 115:Src/main.c    **** 
 116:Src/main.c    ****   /* Initialize all configured peripherals */
 117:Src/main.c    ****   MX_GPIO_Init();
 118:Src/main.c    ****   MX_SPI1_Init();
 119:Src/main.c    ****   
 120:Src/main.c    ****   MX_USART1_UART_Init();
 121:Src/main.c    ****   MX_USART2_UART_Init();
 122:Src/main.c    ****   /* USER CODE BEGIN 2 */
 123:Src/main.c    ****   HAL_UART_Receive_IT(&huart2, rx_buffer, 1);
 124:Src/main.c    ****   CLI_INIT(CLI_BAUDRATE);
 125:Src/main.c    ****   /* USER CODE END 2 */
 126:Src/main.c    **** 
 127:Src/main.c    ****   /* Infinite loop */
 128:Src/main.c    ****   /* USER CODE BEGIN WHILE */
 129:Src/main.c    ****   while (1)
 130:Src/main.c    ****   {
 131:Src/main.c    ****     //Tx_String_To_Cat("my name is weijunfeng\n");
 132:Src/main.c    ****     //Dut_Tx_String("send string to dut\n");
 133:Src/main.c    ****     
 134:Src/main.c    ****     //测试Read Input Registers功能
 135:Src/main.c    ****     //从机地址0x01 ,寄存器地址 0x02 ,连续读2个寄存器地址
 136:Src/main.c    ****     // result = ModbusMaster_readInputRegisters(0x01, 0x2, 2);
 137:Src/main.c    ****     // if (result == 0x00)
 138:Src/main.c    ****     // {
 139:Src/main.c    ****     //   Input_Result[0] = ModbusMaster_getResponseBuffer(0x00);
 140:Src/main.c    ****     //   Input_Result[1] = ModbusMaster_getResponseBuffer(0x01);
 141:Src/main.c    ****     // }
 142:Src/main.c    ****     CLI_RUN();
 143:Src/main.c    ****     HAL_Delay(100);
 144:Src/main.c    ****     /* USER CODE END WHILE */
 145:Src/main.c    **** 
ARM GAS  C:\Users\andywei\AppData\Local\Temp\ccli1twA.s 			page 4


 146:Src/main.c    ****     /* USER CODE BEGIN 3 */
 147:Src/main.c    ****   }
 148:Src/main.c    ****   /* USER CODE END 3 */
 149:Src/main.c    **** }
 150:Src/main.c    **** 
 151:Src/main.c    **** /**
 152:Src/main.c    ****   * @brief System Clock Configuration
 153:Src/main.c    ****   * @retval None
 154:Src/main.c    ****   */
 155:Src/main.c    **** void SystemClock_Config(void)
 156:Src/main.c    **** {
 157:Src/main.c    ****   RCC_OscInitTypeDef RCC_OscInitStruct = {0};
 158:Src/main.c    ****   RCC_ClkInitTypeDef RCC_ClkInitStruct = {0};
 159:Src/main.c    ****   RCC_PeriphCLKInitTypeDef PeriphClkInit = {0};
 160:Src/main.c    **** 
 161:Src/main.c    ****   /** Initializes the RCC Oscillators according to the specified parameters
 162:Src/main.c    ****   * in the RCC_OscInitTypeDef structure.
 163:Src/main.c    ****   */
 164:Src/main.c    ****   RCC_OscInitStruct.OscillatorType = RCC_OSCILLATORTYPE_HSI;
 165:Src/main.c    ****   RCC_OscInitStruct.HSIState = RCC_HSI_ON;
 166:Src/main.c    ****   RCC_OscInitStruct.HSICalibrationValue = RCC_HSICALIBRATION_DEFAULT;
 167:Src/main.c    ****   RCC_OscInitStruct.PLL.PLLState = RCC_PLL_ON;
 168:Src/main.c    ****   RCC_OscInitStruct.PLL.PLLSource = RCC_PLLSOURCE_HSI;
 169:Src/main.c    ****   RCC_OscInitStruct.PLL.PLLM = 1;
 170:Src/main.c    ****   RCC_OscInitStruct.PLL.PLLN = 10;
 171:Src/main.c    ****   RCC_OscInitStruct.PLL.PLLP = RCC_PLLP_DIV7;
 172:Src/main.c    ****   RCC_OscInitStruct.PLL.PLLQ = RCC_PLLQ_DIV2;
 173:Src/main.c    ****   RCC_OscInitStruct.PLL.PLLR = RCC_PLLR_DIV2;
 174:Src/main.c    ****   if (HAL_RCC_OscConfig(&RCC_OscInitStruct) != HAL_OK)
 175:Src/main.c    ****   {
 176:Src/main.c    ****     Error_Handler();
 177:Src/main.c    ****   }
 178:Src/main.c    ****   /** Initializes the CPU, AHB and APB buses clocks
 179:Src/main.c    ****   */
 180:Src/main.c    ****   RCC_ClkInitStruct.ClockType = RCC_CLOCKTYPE_HCLK|RCC_CLOCKTYPE_SYSCLK
 181:Src/main.c    ****                               |RCC_CLOCKTYPE_PCLK1|RCC_CLOCKTYPE_PCLK2;
 182:Src/main.c    ****   RCC_ClkInitStruct.SYSCLKSource = RCC_SYSCLKSOURCE_PLLCLK;
 183:Src/main.c    ****   RCC_ClkInitStruct.AHBCLKDivider = RCC_SYSCLK_DIV1;
 184:Src/main.c    ****   RCC_ClkInitStruct.APB1CLKDivider = RCC_HCLK_DIV1;
 185:Src/main.c    ****   RCC_ClkInitStruct.APB2CLKDivider = RCC_HCLK_DIV1;
 186:Src/main.c    **** 
 187:Src/main.c    ****   if (HAL_RCC_ClockConfig(&RCC_ClkInitStruct, FLASH_LATENCY_4) != HAL_OK)
 188:Src/main.c    ****   {
 189:Src/main.c    ****     Error_Handler();
 190:Src/main.c    ****   }
 191:Src/main.c    ****   PeriphClkInit.PeriphClockSelection = RCC_PERIPHCLK_USART1|RCC_PERIPHCLK_USART2;
 192:Src/main.c    ****   PeriphClkInit.Usart1ClockSelection = RCC_USART1CLKSOURCE_PCLK2;
 193:Src/main.c    ****   PeriphClkInit.Usart2ClockSelection = RCC_USART2CLKSOURCE_PCLK1;
 194:Src/main.c    ****   if (HAL_RCCEx_PeriphCLKConfig(&PeriphClkInit) != HAL_OK)
 195:Src/main.c    ****   {
 196:Src/main.c    ****     Error_Handler();
 197:Src/main.c    ****   }
 198:Src/main.c    ****   /** Configure the main internal regulator output voltage
 199:Src/main.c    ****   */
 200:Src/main.c    ****   if (HAL_PWREx_ControlVoltageScaling(PWR_REGULATOR_VOLTAGE_SCALE1) != HAL_OK)
 201:Src/main.c    ****   {
 202:Src/main.c    ****     Error_Handler();
ARM GAS  C:\Users\andywei\AppData\Local\Temp\ccli1twA.s 			page 5


 203:Src/main.c    ****   }
 204:Src/main.c    **** }
 205:Src/main.c    **** 
 206:Src/main.c    **** /**
 207:Src/main.c    ****   * @brief SPI1 Initialization Function
 208:Src/main.c    ****   * @param None
 209:Src/main.c    ****   * @retval None
 210:Src/main.c    ****   */
 211:Src/main.c    **** static void MX_SPI1_Init(void)
 212:Src/main.c    **** {
 213:Src/main.c    **** 
 214:Src/main.c    ****   /* USER CODE BEGIN SPI1_Init 0 */
 215:Src/main.c    **** 
 216:Src/main.c    ****   /* USER CODE END SPI1_Init 0 */
 217:Src/main.c    **** 
 218:Src/main.c    ****   /* USER CODE BEGIN SPI1_Init 1 */
 219:Src/main.c    **** 
 220:Src/main.c    ****   /* USER CODE END SPI1_Init 1 */
 221:Src/main.c    ****   /* SPI1 parameter configuration*/
 222:Src/main.c    ****   hspi1.Instance = SPI1;
 223:Src/main.c    ****   hspi1.Init.Mode = SPI_MODE_MASTER;
 224:Src/main.c    ****   hspi1.Init.Direction = SPI_DIRECTION_2LINES;
 225:Src/main.c    ****   hspi1.Init.DataSize = SPI_DATASIZE_8BIT;
 226:Src/main.c    ****   hspi1.Init.CLKPolarity = SPI_POLARITY_LOW;
 227:Src/main.c    ****   hspi1.Init.CLKPhase = SPI_PHASE_1EDGE;
 228:Src/main.c    ****   hspi1.Init.NSS = SPI_NSS_SOFT;
 229:Src/main.c    ****   hspi1.Init.BaudRatePrescaler = SPI_BAUDRATEPRESCALER_128;
 230:Src/main.c    ****   hspi1.Init.FirstBit = SPI_FIRSTBIT_MSB;
 231:Src/main.c    ****   hspi1.Init.TIMode = SPI_TIMODE_DISABLE;
 232:Src/main.c    ****   hspi1.Init.CRCCalculation = SPI_CRCCALCULATION_DISABLE;
 233:Src/main.c    ****   hspi1.Init.CRCPolynomial = 7;
 234:Src/main.c    ****   hspi1.Init.CRCLength = SPI_CRC_LENGTH_DATASIZE;
 235:Src/main.c    ****   hspi1.Init.NSSPMode = SPI_NSS_PULSE_ENABLE;
 236:Src/main.c    ****   if (HAL_SPI_Init(&hspi1) != HAL_OK)
 237:Src/main.c    ****   {
 238:Src/main.c    ****     Error_Handler();
 239:Src/main.c    ****   }
 240:Src/main.c    ****   /* USER CODE BEGIN SPI1_Init 2 */
 241:Src/main.c    **** 
 242:Src/main.c    ****   /* USER CODE END SPI1_Init 2 */
 243:Src/main.c    **** 
 244:Src/main.c    **** }
 245:Src/main.c    **** 
 246:Src/main.c    **** /**
 247:Src/main.c    ****   * @brief USART1 Initialization Function
 248:Src/main.c    ****   * @param None
 249:Src/main.c    ****   * @retval None
 250:Src/main.c    ****   */
 251:Src/main.c    **** static void MX_USART1_UART_Init(void)
 252:Src/main.c    **** {
 253:Src/main.c    **** 
 254:Src/main.c    ****   /* USER CODE BEGIN USART1_Init 0 */
 255:Src/main.c    **** 
 256:Src/main.c    ****   /* USER CODE END USART1_Init 0 */
 257:Src/main.c    **** 
 258:Src/main.c    ****   /* USER CODE BEGIN USART1_Init 1 */
 259:Src/main.c    **** 
ARM GAS  C:\Users\andywei\AppData\Local\Temp\ccli1twA.s 			page 6


 260:Src/main.c    ****   /* USER CODE END USART1_Init 1 */
 261:Src/main.c    ****   huart1.Instance = USART1;
 262:Src/main.c    ****   huart1.Init.BaudRate = 115200;
 263:Src/main.c    ****   huart1.Init.WordLength = UART_WORDLENGTH_8B;
 264:Src/main.c    ****   huart1.Init.StopBits = UART_STOPBITS_1;
 265:Src/main.c    ****   huart1.Init.Parity = UART_PARITY_NONE;
 266:Src/main.c    ****   huart1.Init.Mode = UART_MODE_TX_RX;
 267:Src/main.c    ****   huart1.Init.HwFlowCtl = UART_HWCONTROL_NONE;
 268:Src/main.c    ****   huart1.Init.OverSampling = UART_OVERSAMPLING_16;
 269:Src/main.c    ****   huart1.Init.OneBitSampling = UART_ONE_BIT_SAMPLE_DISABLE;
 270:Src/main.c    ****   huart1.AdvancedInit.AdvFeatureInit = UART_ADVFEATURE_NO_INIT;
 271:Src/main.c    ****   if (HAL_UART_Init(&huart1) != HAL_OK)
 272:Src/main.c    ****   {
 273:Src/main.c    ****     Error_Handler();
 274:Src/main.c    ****   }
 275:Src/main.c    ****   /* USER CODE BEGIN USART1_Init 2 */
 276:Src/main.c    **** 
 277:Src/main.c    ****   /* USER CODE END USART1_Init 2 */
 278:Src/main.c    **** 
 279:Src/main.c    **** }
 280:Src/main.c    **** 
 281:Src/main.c    **** /**
 282:Src/main.c    ****   * @brief USART2 Initialization Function
 283:Src/main.c    ****   * @param None
 284:Src/main.c    ****   * @retval None
 285:Src/main.c    ****   */
 286:Src/main.c    **** static void MX_USART2_UART_Init(void)
 287:Src/main.c    **** {
 288:Src/main.c    **** 
 289:Src/main.c    ****   /* USER CODE BEGIN USART2_Init 0 */
 290:Src/main.c    **** 
 291:Src/main.c    ****   /* USER CODE END USART2_Init 0 */
 292:Src/main.c    **** 
 293:Src/main.c    ****   /* USER CODE BEGIN USART2_Init 1 */
 294:Src/main.c    **** 
 295:Src/main.c    ****   /* USER CODE END USART2_Init 1 */
 296:Src/main.c    ****   huart2.Instance = USART2;
 297:Src/main.c    ****   huart2.Init.BaudRate = 115200;
 298:Src/main.c    ****   huart2.Init.WordLength = UART_WORDLENGTH_8B;
 299:Src/main.c    ****   huart2.Init.StopBits = UART_STOPBITS_1;
 300:Src/main.c    ****   huart2.Init.Parity = UART_PARITY_NONE;
 301:Src/main.c    ****   huart2.Init.Mode = UART_MODE_TX_RX;
 302:Src/main.c    ****   huart2.Init.HwFlowCtl = UART_HWCONTROL_NONE;
 303:Src/main.c    ****   huart2.Init.OverSampling = UART_OVERSAMPLING_16;
 304:Src/main.c    ****   huart2.Init.OneBitSampling = UART_ONE_BIT_SAMPLE_DISABLE;
 305:Src/main.c    ****   huart2.AdvancedInit.AdvFeatureInit = UART_ADVFEATURE_NO_INIT;
 306:Src/main.c    ****   if (HAL_UART_Init(&huart2) != HAL_OK)
 307:Src/main.c    ****   {
 308:Src/main.c    ****     Error_Handler();
 309:Src/main.c    ****   }
 310:Src/main.c    ****   /* USER CODE BEGIN USART2_Init 2 */
 311:Src/main.c    **** 
 312:Src/main.c    ****   /* USER CODE END USART2_Init 2 */
 313:Src/main.c    **** 
 314:Src/main.c    **** }
 315:Src/main.c    **** 
 316:Src/main.c    **** /**
ARM GAS  C:\Users\andywei\AppData\Local\Temp\ccli1twA.s 			page 7


 317:Src/main.c    ****   * @brief GPIO Initialization Function
 318:Src/main.c    ****   * @param None
 319:Src/main.c    ****   * @retval None
 320:Src/main.c    ****   */
 321:Src/main.c    **** static void MX_GPIO_Init(void)
 322:Src/main.c    **** {
  28              		.loc 1 322 1 view -0
  29              		.cfi_startproc
  30              		@ args = 0, pretend = 0, frame = 32
  31              		@ frame_needed = 0, uses_anonymous_args = 0
  32 0000 70B5     		push	{r4, r5, r6, lr}
  33              	.LCFI0:
  34              		.cfi_def_cfa_offset 16
  35              		.cfi_offset 4, -16
  36              		.cfi_offset 5, -12
  37              		.cfi_offset 6, -8
  38              		.cfi_offset 14, -4
  39 0002 88B0     		sub	sp, sp, #32
  40              	.LCFI1:
  41              		.cfi_def_cfa_offset 48
 323:Src/main.c    ****   GPIO_InitTypeDef GPIO_InitStruct = {0};
  42              		.loc 1 323 3 view .LVU1
  43              		.loc 1 323 20 is_stmt 0 view .LVU2
  44 0004 0024     		movs	r4, #0
  45 0006 0394     		str	r4, [sp, #12]
  46 0008 0494     		str	r4, [sp, #16]
  47 000a 0594     		str	r4, [sp, #20]
  48 000c 0694     		str	r4, [sp, #24]
  49 000e 0794     		str	r4, [sp, #28]
 324:Src/main.c    **** 
 325:Src/main.c    ****   /* GPIO Ports Clock Enable */
 326:Src/main.c    ****   __HAL_RCC_GPIOC_CLK_ENABLE();
  50              		.loc 1 326 3 is_stmt 1 view .LVU3
  51              	.LBB2:
  52              		.loc 1 326 3 view .LVU4
  53              		.loc 1 326 3 view .LVU5
  54 0010 394B     		ldr	r3, .L3
  55 0012 DA6C     		ldr	r2, [r3, #76]
  56 0014 42F00402 		orr	r2, r2, #4
  57 0018 DA64     		str	r2, [r3, #76]
  58              		.loc 1 326 3 view .LVU6
  59 001a DA6C     		ldr	r2, [r3, #76]
  60 001c 02F00402 		and	r2, r2, #4
  61 0020 0092     		str	r2, [sp]
  62              		.loc 1 326 3 view .LVU7
  63 0022 009A     		ldr	r2, [sp]
  64              	.LBE2:
  65              		.loc 1 326 3 view .LVU8
 327:Src/main.c    ****   __HAL_RCC_GPIOA_CLK_ENABLE();
  66              		.loc 1 327 3 view .LVU9
  67              	.LBB3:
  68              		.loc 1 327 3 view .LVU10
  69              		.loc 1 327 3 view .LVU11
  70 0024 DA6C     		ldr	r2, [r3, #76]
  71 0026 42F00102 		orr	r2, r2, #1
  72 002a DA64     		str	r2, [r3, #76]
  73              		.loc 1 327 3 view .LVU12
ARM GAS  C:\Users\andywei\AppData\Local\Temp\ccli1twA.s 			page 8


  74 002c DA6C     		ldr	r2, [r3, #76]
  75 002e 02F00102 		and	r2, r2, #1
  76 0032 0192     		str	r2, [sp, #4]
  77              		.loc 1 327 3 view .LVU13
  78 0034 019A     		ldr	r2, [sp, #4]
  79              	.LBE3:
  80              		.loc 1 327 3 view .LVU14
 328:Src/main.c    ****   __HAL_RCC_GPIOB_CLK_ENABLE();
  81              		.loc 1 328 3 view .LVU15
  82              	.LBB4:
  83              		.loc 1 328 3 view .LVU16
  84              		.loc 1 328 3 view .LVU17
  85 0036 DA6C     		ldr	r2, [r3, #76]
  86 0038 42F00202 		orr	r2, r2, #2
  87 003c DA64     		str	r2, [r3, #76]
  88              		.loc 1 328 3 view .LVU18
  89 003e DB6C     		ldr	r3, [r3, #76]
  90 0040 03F00203 		and	r3, r3, #2
  91 0044 0293     		str	r3, [sp, #8]
  92              		.loc 1 328 3 view .LVU19
  93 0046 029B     		ldr	r3, [sp, #8]
  94              	.LBE4:
  95              		.loc 1 328 3 view .LVU20
 329:Src/main.c    **** 
 330:Src/main.c    ****   /*Configure GPIO pin Output Level */
 331:Src/main.c    ****   HAL_GPIO_WritePin(GPIOC, OLED_SCL_Pin|OLED_SDA_Pin, GPIO_PIN_SET);
  96              		.loc 1 331 3 view .LVU21
  97 0048 2C4E     		ldr	r6, .L3+4
  98 004a 0122     		movs	r2, #1
  99 004c 0321     		movs	r1, #3
 100 004e 3046     		mov	r0, r6
 101 0050 FFF7FEFF 		bl	HAL_GPIO_WritePin
 102              	.LVL0:
 332:Src/main.c    **** 
 333:Src/main.c    ****   /*Configure GPIO pin Output Level */
 334:Src/main.c    ****   HAL_GPIO_WritePin(GPIOA, IN1_Pin|IN2_Pin|IN3_Pin|SPI1_CS_Pin, GPIO_PIN_SET);
 103              		.loc 1 334 3 view .LVU22
 104 0054 0122     		movs	r2, #1
 105 0056 40F21311 		movw	r1, #275
 106 005a 4FF09040 		mov	r0, #1207959552
 107 005e FFF7FEFF 		bl	HAL_GPIO_WritePin
 108              	.LVL1:
 335:Src/main.c    **** 
 336:Src/main.c    ****   /*Configure GPIO pin : B1_Pin */
 337:Src/main.c    ****   GPIO_InitStruct.Pin = B1_Pin;
 109              		.loc 1 337 3 view .LVU23
 110              		.loc 1 337 23 is_stmt 0 view .LVU24
 111 0062 4FF40053 		mov	r3, #8192
 112 0066 0393     		str	r3, [sp, #12]
 338:Src/main.c    ****   GPIO_InitStruct.Mode = GPIO_MODE_IT_FALLING;
 113              		.loc 1 338 3 is_stmt 1 view .LVU25
 114              		.loc 1 338 24 is_stmt 0 view .LVU26
 115 0068 254B     		ldr	r3, .L3+8
 116 006a 0493     		str	r3, [sp, #16]
 339:Src/main.c    ****   GPIO_InitStruct.Pull = GPIO_NOPULL;
 117              		.loc 1 339 3 is_stmt 1 view .LVU27
 118              		.loc 1 339 24 is_stmt 0 view .LVU28
ARM GAS  C:\Users\andywei\AppData\Local\Temp\ccli1twA.s 			page 9


 119 006c 0594     		str	r4, [sp, #20]
 340:Src/main.c    ****   HAL_GPIO_Init(B1_GPIO_Port, &GPIO_InitStruct);
 120              		.loc 1 340 3 is_stmt 1 view .LVU29
 121 006e 03A9     		add	r1, sp, #12
 122 0070 3046     		mov	r0, r6
 123 0072 FFF7FEFF 		bl	HAL_GPIO_Init
 124              	.LVL2:
 341:Src/main.c    **** 
 342:Src/main.c    ****   /*Configure GPIO pins : OLED_SCL_Pin OLED_SDA_Pin */
 343:Src/main.c    ****   GPIO_InitStruct.Pin = OLED_SCL_Pin|OLED_SDA_Pin;
 125              		.loc 1 343 3 view .LVU30
 126              		.loc 1 343 23 is_stmt 0 view .LVU31
 127 0076 0323     		movs	r3, #3
 128 0078 0393     		str	r3, [sp, #12]
 344:Src/main.c    ****   GPIO_InitStruct.Mode = GPIO_MODE_OUTPUT_PP;
 129              		.loc 1 344 3 is_stmt 1 view .LVU32
 130              		.loc 1 344 24 is_stmt 0 view .LVU33
 131 007a 0125     		movs	r5, #1
 132 007c 0495     		str	r5, [sp, #16]
 345:Src/main.c    ****   GPIO_InitStruct.Pull = GPIO_NOPULL;
 133              		.loc 1 345 3 is_stmt 1 view .LVU34
 134              		.loc 1 345 24 is_stmt 0 view .LVU35
 135 007e 0594     		str	r4, [sp, #20]
 346:Src/main.c    ****   GPIO_InitStruct.Speed = GPIO_SPEED_FREQ_LOW;
 136              		.loc 1 346 3 is_stmt 1 view .LVU36
 137              		.loc 1 346 25 is_stmt 0 view .LVU37
 138 0080 0694     		str	r4, [sp, #24]
 347:Src/main.c    ****   HAL_GPIO_Init(GPIOC, &GPIO_InitStruct);
 139              		.loc 1 347 3 is_stmt 1 view .LVU38
 140 0082 03A9     		add	r1, sp, #12
 141 0084 3046     		mov	r0, r6
 142 0086 FFF7FEFF 		bl	HAL_GPIO_Init
 143              	.LVL3:
 348:Src/main.c    **** 
 349:Src/main.c    ****   /*Configure GPIO pins : IN1_Pin IN2_Pin IN3_Pin SPI1_CS_Pin */
 350:Src/main.c    ****   GPIO_InitStruct.Pin = IN1_Pin|IN2_Pin|IN3_Pin|SPI1_CS_Pin;
 144              		.loc 1 350 3 view .LVU39
 145              		.loc 1 350 23 is_stmt 0 view .LVU40
 146 008a 40F21313 		movw	r3, #275
 147 008e 0393     		str	r3, [sp, #12]
 351:Src/main.c    ****   GPIO_InitStruct.Mode = GPIO_MODE_OUTPUT_PP;
 148              		.loc 1 351 3 is_stmt 1 view .LVU41
 149              		.loc 1 351 24 is_stmt 0 view .LVU42
 150 0090 0495     		str	r5, [sp, #16]
 352:Src/main.c    ****   GPIO_InitStruct.Pull = GPIO_NOPULL;
 151              		.loc 1 352 3 is_stmt 1 view .LVU43
 152              		.loc 1 352 24 is_stmt 0 view .LVU44
 153 0092 0594     		str	r4, [sp, #20]
 353:Src/main.c    ****   GPIO_InitStruct.Speed = GPIO_SPEED_FREQ_LOW;
 154              		.loc 1 353 3 is_stmt 1 view .LVU45
 155              		.loc 1 353 25 is_stmt 0 view .LVU46
 156 0094 0694     		str	r4, [sp, #24]
 354:Src/main.c    ****   HAL_GPIO_Init(GPIOA, &GPIO_InitStruct);
 157              		.loc 1 354 3 is_stmt 1 view .LVU47
 158 0096 03A9     		add	r1, sp, #12
 159 0098 4FF09040 		mov	r0, #1207959552
 160 009c FFF7FEFF 		bl	HAL_GPIO_Init
ARM GAS  C:\Users\andywei\AppData\Local\Temp\ccli1twA.s 			page 10


 161              	.LVL4:
 355:Src/main.c    **** 
 356:Src/main.c    ****   /*Configure GPIO pins : RIGHT_KEY_Pin OK_KEY_Pin UP_KEY_Pin DOWN_KEY_Pin
 357:Src/main.c    ****                            LEFT_KEY_Pin */
 358:Src/main.c    ****   GPIO_InitStruct.Pin = RIGHT_KEY_Pin|OK_KEY_Pin|UP_KEY_Pin|DOWN_KEY_Pin
 162              		.loc 1 358 3 view .LVU48
 163              		.loc 1 358 23 is_stmt 0 view .LVU49
 164 00a0 4FF48F63 		mov	r3, #1144
 165 00a4 0393     		str	r3, [sp, #12]
 359:Src/main.c    ****                           |LEFT_KEY_Pin;
 360:Src/main.c    ****   GPIO_InitStruct.Mode = GPIO_MODE_IT_RISING;
 166              		.loc 1 360 3 is_stmt 1 view .LVU50
 167              		.loc 1 360 24 is_stmt 0 view .LVU51
 168 00a6 174B     		ldr	r3, .L3+12
 169 00a8 0493     		str	r3, [sp, #16]
 361:Src/main.c    ****   GPIO_InitStruct.Pull = GPIO_PULLUP;
 170              		.loc 1 361 3 is_stmt 1 view .LVU52
 171              		.loc 1 361 24 is_stmt 0 view .LVU53
 172 00aa 0595     		str	r5, [sp, #20]
 362:Src/main.c    ****   HAL_GPIO_Init(GPIOB, &GPIO_InitStruct);
 173              		.loc 1 362 3 is_stmt 1 view .LVU54
 174 00ac 03A9     		add	r1, sp, #12
 175 00ae 1648     		ldr	r0, .L3+16
 176 00b0 FFF7FEFF 		bl	HAL_GPIO_Init
 177              	.LVL5:
 363:Src/main.c    **** 
 364:Src/main.c    ****   /* EXTI interrupt init*/
 365:Src/main.c    ****   HAL_NVIC_SetPriority(EXTI3_IRQn, 1, 0);
 178              		.loc 1 365 3 view .LVU55
 179 00b4 2246     		mov	r2, r4
 180 00b6 2946     		mov	r1, r5
 181 00b8 0920     		movs	r0, #9
 182 00ba FFF7FEFF 		bl	HAL_NVIC_SetPriority
 183              	.LVL6:
 366:Src/main.c    ****   HAL_NVIC_EnableIRQ(EXTI3_IRQn);
 184              		.loc 1 366 3 view .LVU56
 185 00be 0920     		movs	r0, #9
 186 00c0 FFF7FEFF 		bl	HAL_NVIC_EnableIRQ
 187              	.LVL7:
 367:Src/main.c    **** 
 368:Src/main.c    ****   HAL_NVIC_SetPriority(EXTI4_IRQn, 1, 0);
 188              		.loc 1 368 3 view .LVU57
 189 00c4 2246     		mov	r2, r4
 190 00c6 2946     		mov	r1, r5
 191 00c8 0A20     		movs	r0, #10
 192 00ca FFF7FEFF 		bl	HAL_NVIC_SetPriority
 193              	.LVL8:
 369:Src/main.c    ****   HAL_NVIC_EnableIRQ(EXTI4_IRQn);
 194              		.loc 1 369 3 view .LVU58
 195 00ce 0A20     		movs	r0, #10
 196 00d0 FFF7FEFF 		bl	HAL_NVIC_EnableIRQ
 197              	.LVL9:
 370:Src/main.c    **** 
 371:Src/main.c    ****   HAL_NVIC_SetPriority(EXTI9_5_IRQn, 1, 0);
 198              		.loc 1 371 3 view .LVU59
 199 00d4 2246     		mov	r2, r4
 200 00d6 2946     		mov	r1, r5
ARM GAS  C:\Users\andywei\AppData\Local\Temp\ccli1twA.s 			page 11


 201 00d8 1720     		movs	r0, #23
 202 00da FFF7FEFF 		bl	HAL_NVIC_SetPriority
 203              	.LVL10:
 372:Src/main.c    ****   HAL_NVIC_EnableIRQ(EXTI9_5_IRQn);
 204              		.loc 1 372 3 view .LVU60
 205 00de 1720     		movs	r0, #23
 206 00e0 FFF7FEFF 		bl	HAL_NVIC_EnableIRQ
 207              	.LVL11:
 373:Src/main.c    **** 
 374:Src/main.c    ****   HAL_NVIC_SetPriority(EXTI15_10_IRQn, 1, 0);
 208              		.loc 1 374 3 view .LVU61
 209 00e4 2246     		mov	r2, r4
 210 00e6 2946     		mov	r1, r5
 211 00e8 2820     		movs	r0, #40
 212 00ea FFF7FEFF 		bl	HAL_NVIC_SetPriority
 213              	.LVL12:
 375:Src/main.c    ****   HAL_NVIC_EnableIRQ(EXTI15_10_IRQn);
 214              		.loc 1 375 3 view .LVU62
 215 00ee 2820     		movs	r0, #40
 216 00f0 FFF7FEFF 		bl	HAL_NVIC_EnableIRQ
 217              	.LVL13:
 376:Src/main.c    **** 
 377:Src/main.c    **** }
 218              		.loc 1 377 1 is_stmt 0 view .LVU63
 219 00f4 08B0     		add	sp, sp, #32
 220              	.LCFI2:
 221              		.cfi_def_cfa_offset 16
 222              		@ sp needed
 223 00f6 70BD     		pop	{r4, r5, r6, pc}
 224              	.L4:
 225              		.align	2
 226              	.L3:
 227 00f8 00100240 		.word	1073876992
 228 00fc 00080048 		.word	1207961600
 229 0100 00002110 		.word	270598144
 230 0104 00001110 		.word	269549568
 231 0108 00040048 		.word	1207960576
 232              		.cfi_endproc
 233              	.LFE148:
 235              		.section	.text.MX_SPI1_Init,"ax",%progbits
 236              		.align	1
 237              		.syntax unified
 238              		.thumb
 239              		.thumb_func
 240              		.fpu fpv4-sp-d16
 242              	MX_SPI1_Init:
 243              	.LFB145:
 212:Src/main.c    **** 
 244              		.loc 1 212 1 is_stmt 1 view -0
 245              		.cfi_startproc
 246              		@ args = 0, pretend = 0, frame = 0
 247              		@ frame_needed = 0, uses_anonymous_args = 0
 248 0000 08B5     		push	{r3, lr}
 249              	.LCFI3:
 250              		.cfi_def_cfa_offset 8
 251              		.cfi_offset 3, -8
 252              		.cfi_offset 14, -4
ARM GAS  C:\Users\andywei\AppData\Local\Temp\ccli1twA.s 			page 12


 222:Src/main.c    ****   hspi1.Init.Mode = SPI_MODE_MASTER;
 253              		.loc 1 222 3 view .LVU65
 222:Src/main.c    ****   hspi1.Init.Mode = SPI_MODE_MASTER;
 254              		.loc 1 222 18 is_stmt 0 view .LVU66
 255 0002 0E48     		ldr	r0, .L7
 256 0004 0E4B     		ldr	r3, .L7+4
 257 0006 0360     		str	r3, [r0]
 223:Src/main.c    ****   hspi1.Init.Direction = SPI_DIRECTION_2LINES;
 258              		.loc 1 223 3 is_stmt 1 view .LVU67
 223:Src/main.c    ****   hspi1.Init.Direction = SPI_DIRECTION_2LINES;
 259              		.loc 1 223 19 is_stmt 0 view .LVU68
 260 0008 4FF48273 		mov	r3, #260
 261 000c 4360     		str	r3, [r0, #4]
 224:Src/main.c    ****   hspi1.Init.DataSize = SPI_DATASIZE_8BIT;
 262              		.loc 1 224 3 is_stmt 1 view .LVU69
 224:Src/main.c    ****   hspi1.Init.DataSize = SPI_DATASIZE_8BIT;
 263              		.loc 1 224 24 is_stmt 0 view .LVU70
 264 000e 0023     		movs	r3, #0
 265 0010 8360     		str	r3, [r0, #8]
 225:Src/main.c    ****   hspi1.Init.CLKPolarity = SPI_POLARITY_LOW;
 266              		.loc 1 225 3 is_stmt 1 view .LVU71
 225:Src/main.c    ****   hspi1.Init.CLKPolarity = SPI_POLARITY_LOW;
 267              		.loc 1 225 23 is_stmt 0 view .LVU72
 268 0012 4FF4E062 		mov	r2, #1792
 269 0016 C260     		str	r2, [r0, #12]
 226:Src/main.c    ****   hspi1.Init.CLKPhase = SPI_PHASE_1EDGE;
 270              		.loc 1 226 3 is_stmt 1 view .LVU73
 226:Src/main.c    ****   hspi1.Init.CLKPhase = SPI_PHASE_1EDGE;
 271              		.loc 1 226 26 is_stmt 0 view .LVU74
 272 0018 0361     		str	r3, [r0, #16]
 227:Src/main.c    ****   hspi1.Init.NSS = SPI_NSS_SOFT;
 273              		.loc 1 227 3 is_stmt 1 view .LVU75
 227:Src/main.c    ****   hspi1.Init.NSS = SPI_NSS_SOFT;
 274              		.loc 1 227 23 is_stmt 0 view .LVU76
 275 001a 4361     		str	r3, [r0, #20]
 228:Src/main.c    ****   hspi1.Init.BaudRatePrescaler = SPI_BAUDRATEPRESCALER_128;
 276              		.loc 1 228 3 is_stmt 1 view .LVU77
 228:Src/main.c    ****   hspi1.Init.BaudRatePrescaler = SPI_BAUDRATEPRESCALER_128;
 277              		.loc 1 228 18 is_stmt 0 view .LVU78
 278 001c 4FF40072 		mov	r2, #512
 279 0020 8261     		str	r2, [r0, #24]
 229:Src/main.c    ****   hspi1.Init.FirstBit = SPI_FIRSTBIT_MSB;
 280              		.loc 1 229 3 is_stmt 1 view .LVU79
 229:Src/main.c    ****   hspi1.Init.FirstBit = SPI_FIRSTBIT_MSB;
 281              		.loc 1 229 32 is_stmt 0 view .LVU80
 282 0022 3022     		movs	r2, #48
 283 0024 C261     		str	r2, [r0, #28]
 230:Src/main.c    ****   hspi1.Init.TIMode = SPI_TIMODE_DISABLE;
 284              		.loc 1 230 3 is_stmt 1 view .LVU81
 230:Src/main.c    ****   hspi1.Init.TIMode = SPI_TIMODE_DISABLE;
 285              		.loc 1 230 23 is_stmt 0 view .LVU82
 286 0026 0362     		str	r3, [r0, #32]
 231:Src/main.c    ****   hspi1.Init.CRCCalculation = SPI_CRCCALCULATION_DISABLE;
 287              		.loc 1 231 3 is_stmt 1 view .LVU83
 231:Src/main.c    ****   hspi1.Init.CRCCalculation = SPI_CRCCALCULATION_DISABLE;
 288              		.loc 1 231 21 is_stmt 0 view .LVU84
 289 0028 4362     		str	r3, [r0, #36]
ARM GAS  C:\Users\andywei\AppData\Local\Temp\ccli1twA.s 			page 13


 232:Src/main.c    ****   hspi1.Init.CRCPolynomial = 7;
 290              		.loc 1 232 3 is_stmt 1 view .LVU85
 232:Src/main.c    ****   hspi1.Init.CRCPolynomial = 7;
 291              		.loc 1 232 29 is_stmt 0 view .LVU86
 292 002a 8362     		str	r3, [r0, #40]
 233:Src/main.c    ****   hspi1.Init.CRCLength = SPI_CRC_LENGTH_DATASIZE;
 293              		.loc 1 233 3 is_stmt 1 view .LVU87
 233:Src/main.c    ****   hspi1.Init.CRCLength = SPI_CRC_LENGTH_DATASIZE;
 294              		.loc 1 233 28 is_stmt 0 view .LVU88
 295 002c 0722     		movs	r2, #7
 296 002e C262     		str	r2, [r0, #44]
 234:Src/main.c    ****   hspi1.Init.NSSPMode = SPI_NSS_PULSE_ENABLE;
 297              		.loc 1 234 3 is_stmt 1 view .LVU89
 234:Src/main.c    ****   hspi1.Init.NSSPMode = SPI_NSS_PULSE_ENABLE;
 298              		.loc 1 234 24 is_stmt 0 view .LVU90
 299 0030 0363     		str	r3, [r0, #48]
 235:Src/main.c    ****   if (HAL_SPI_Init(&hspi1) != HAL_OK)
 300              		.loc 1 235 3 is_stmt 1 view .LVU91
 235:Src/main.c    ****   if (HAL_SPI_Init(&hspi1) != HAL_OK)
 301              		.loc 1 235 23 is_stmt 0 view .LVU92
 302 0032 0823     		movs	r3, #8
 303 0034 4363     		str	r3, [r0, #52]
 236:Src/main.c    ****   {
 304              		.loc 1 236 3 is_stmt 1 view .LVU93
 236:Src/main.c    ****   {
 305              		.loc 1 236 7 is_stmt 0 view .LVU94
 306 0036 FFF7FEFF 		bl	HAL_SPI_Init
 307              	.LVL14:
 244:Src/main.c    **** 
 308              		.loc 1 244 1 view .LVU95
 309 003a 08BD     		pop	{r3, pc}
 310              	.L8:
 311              		.align	2
 312              	.L7:
 313 003c 00000000 		.word	hspi1
 314 0040 00300140 		.word	1073819648
 315              		.cfi_endproc
 316              	.LFE145:
 318              		.section	.text.MX_USART1_UART_Init,"ax",%progbits
 319              		.align	1
 320              		.syntax unified
 321              		.thumb
 322              		.thumb_func
 323              		.fpu fpv4-sp-d16
 325              	MX_USART1_UART_Init:
 326              	.LFB146:
 252:Src/main.c    **** 
 327              		.loc 1 252 1 is_stmt 1 view -0
 328              		.cfi_startproc
 329              		@ args = 0, pretend = 0, frame = 0
 330              		@ frame_needed = 0, uses_anonymous_args = 0
 331 0000 08B5     		push	{r3, lr}
 332              	.LCFI4:
 333              		.cfi_def_cfa_offset 8
 334              		.cfi_offset 3, -8
 335              		.cfi_offset 14, -4
 261:Src/main.c    ****   huart1.Init.BaudRate = 115200;
ARM GAS  C:\Users\andywei\AppData\Local\Temp\ccli1twA.s 			page 14


 336              		.loc 1 261 3 view .LVU97
 261:Src/main.c    ****   huart1.Init.BaudRate = 115200;
 337              		.loc 1 261 19 is_stmt 0 view .LVU98
 338 0002 0948     		ldr	r0, .L11
 339 0004 094B     		ldr	r3, .L11+4
 340 0006 0360     		str	r3, [r0]
 262:Src/main.c    ****   huart1.Init.WordLength = UART_WORDLENGTH_8B;
 341              		.loc 1 262 3 is_stmt 1 view .LVU99
 262:Src/main.c    ****   huart1.Init.WordLength = UART_WORDLENGTH_8B;
 342              		.loc 1 262 24 is_stmt 0 view .LVU100
 343 0008 4FF4E133 		mov	r3, #115200
 344 000c 4360     		str	r3, [r0, #4]
 263:Src/main.c    ****   huart1.Init.StopBits = UART_STOPBITS_1;
 345              		.loc 1 263 3 is_stmt 1 view .LVU101
 263:Src/main.c    ****   huart1.Init.StopBits = UART_STOPBITS_1;
 346              		.loc 1 263 26 is_stmt 0 view .LVU102
 347 000e 0023     		movs	r3, #0
 348 0010 8360     		str	r3, [r0, #8]
 264:Src/main.c    ****   huart1.Init.Parity = UART_PARITY_NONE;
 349              		.loc 1 264 3 is_stmt 1 view .LVU103
 264:Src/main.c    ****   huart1.Init.Parity = UART_PARITY_NONE;
 350              		.loc 1 264 24 is_stmt 0 view .LVU104
 351 0012 C360     		str	r3, [r0, #12]
 265:Src/main.c    ****   huart1.Init.Mode = UART_MODE_TX_RX;
 352              		.loc 1 265 3 is_stmt 1 view .LVU105
 265:Src/main.c    ****   huart1.Init.Mode = UART_MODE_TX_RX;
 353              		.loc 1 265 22 is_stmt 0 view .LVU106
 354 0014 0361     		str	r3, [r0, #16]
 266:Src/main.c    ****   huart1.Init.HwFlowCtl = UART_HWCONTROL_NONE;
 355              		.loc 1 266 3 is_stmt 1 view .LVU107
 266:Src/main.c    ****   huart1.Init.HwFlowCtl = UART_HWCONTROL_NONE;
 356              		.loc 1 266 20 is_stmt 0 view .LVU108
 357 0016 0C22     		movs	r2, #12
 358 0018 4261     		str	r2, [r0, #20]
 267:Src/main.c    ****   huart1.Init.OverSampling = UART_OVERSAMPLING_16;
 359              		.loc 1 267 3 is_stmt 1 view .LVU109
 267:Src/main.c    ****   huart1.Init.OverSampling = UART_OVERSAMPLING_16;
 360              		.loc 1 267 25 is_stmt 0 view .LVU110
 361 001a 8361     		str	r3, [r0, #24]
 268:Src/main.c    ****   huart1.Init.OneBitSampling = UART_ONE_BIT_SAMPLE_DISABLE;
 362              		.loc 1 268 3 is_stmt 1 view .LVU111
 268:Src/main.c    ****   huart1.Init.OneBitSampling = UART_ONE_BIT_SAMPLE_DISABLE;
 363              		.loc 1 268 28 is_stmt 0 view .LVU112
 364 001c C361     		str	r3, [r0, #28]
 269:Src/main.c    ****   huart1.AdvancedInit.AdvFeatureInit = UART_ADVFEATURE_NO_INIT;
 365              		.loc 1 269 3 is_stmt 1 view .LVU113
 269:Src/main.c    ****   huart1.AdvancedInit.AdvFeatureInit = UART_ADVFEATURE_NO_INIT;
 366              		.loc 1 269 30 is_stmt 0 view .LVU114
 367 001e 0362     		str	r3, [r0, #32]
 270:Src/main.c    ****   if (HAL_UART_Init(&huart1) != HAL_OK)
 368              		.loc 1 270 3 is_stmt 1 view .LVU115
 270:Src/main.c    ****   if (HAL_UART_Init(&huart1) != HAL_OK)
 369              		.loc 1 270 38 is_stmt 0 view .LVU116
 370 0020 4362     		str	r3, [r0, #36]
 271:Src/main.c    ****   {
 371              		.loc 1 271 3 is_stmt 1 view .LVU117
 271:Src/main.c    ****   {
ARM GAS  C:\Users\andywei\AppData\Local\Temp\ccli1twA.s 			page 15


 372              		.loc 1 271 7 is_stmt 0 view .LVU118
 373 0022 FFF7FEFF 		bl	HAL_UART_Init
 374              	.LVL15:
 279:Src/main.c    **** 
 375              		.loc 1 279 1 view .LVU119
 376 0026 08BD     		pop	{r3, pc}
 377              	.L12:
 378              		.align	2
 379              	.L11:
 380 0028 00000000 		.word	huart1
 381 002c 00380140 		.word	1073821696
 382              		.cfi_endproc
 383              	.LFE146:
 385              		.section	.text.MX_USART2_UART_Init,"ax",%progbits
 386              		.align	1
 387              		.syntax unified
 388              		.thumb
 389              		.thumb_func
 390              		.fpu fpv4-sp-d16
 392              	MX_USART2_UART_Init:
 393              	.LFB147:
 287:Src/main.c    **** 
 394              		.loc 1 287 1 is_stmt 1 view -0
 395              		.cfi_startproc
 396              		@ args = 0, pretend = 0, frame = 0
 397              		@ frame_needed = 0, uses_anonymous_args = 0
 398 0000 08B5     		push	{r3, lr}
 399              	.LCFI5:
 400              		.cfi_def_cfa_offset 8
 401              		.cfi_offset 3, -8
 402              		.cfi_offset 14, -4
 296:Src/main.c    ****   huart2.Init.BaudRate = 115200;
 403              		.loc 1 296 3 view .LVU121
 296:Src/main.c    ****   huart2.Init.BaudRate = 115200;
 404              		.loc 1 296 19 is_stmt 0 view .LVU122
 405 0002 0948     		ldr	r0, .L15
 406 0004 094B     		ldr	r3, .L15+4
 407 0006 0360     		str	r3, [r0]
 297:Src/main.c    ****   huart2.Init.WordLength = UART_WORDLENGTH_8B;
 408              		.loc 1 297 3 is_stmt 1 view .LVU123
 297:Src/main.c    ****   huart2.Init.WordLength = UART_WORDLENGTH_8B;
 409              		.loc 1 297 24 is_stmt 0 view .LVU124
 410 0008 4FF4E133 		mov	r3, #115200
 411 000c 4360     		str	r3, [r0, #4]
 298:Src/main.c    ****   huart2.Init.StopBits = UART_STOPBITS_1;
 412              		.loc 1 298 3 is_stmt 1 view .LVU125
 298:Src/main.c    ****   huart2.Init.StopBits = UART_STOPBITS_1;
 413              		.loc 1 298 26 is_stmt 0 view .LVU126
 414 000e 0023     		movs	r3, #0
 415 0010 8360     		str	r3, [r0, #8]
 299:Src/main.c    ****   huart2.Init.Parity = UART_PARITY_NONE;
 416              		.loc 1 299 3 is_stmt 1 view .LVU127
 299:Src/main.c    ****   huart2.Init.Parity = UART_PARITY_NONE;
 417              		.loc 1 299 24 is_stmt 0 view .LVU128
 418 0012 C360     		str	r3, [r0, #12]
 300:Src/main.c    ****   huart2.Init.Mode = UART_MODE_TX_RX;
 419              		.loc 1 300 3 is_stmt 1 view .LVU129
ARM GAS  C:\Users\andywei\AppData\Local\Temp\ccli1twA.s 			page 16


 300:Src/main.c    ****   huart2.Init.Mode = UART_MODE_TX_RX;
 420              		.loc 1 300 22 is_stmt 0 view .LVU130
 421 0014 0361     		str	r3, [r0, #16]
 301:Src/main.c    ****   huart2.Init.HwFlowCtl = UART_HWCONTROL_NONE;
 422              		.loc 1 301 3 is_stmt 1 view .LVU131
 301:Src/main.c    ****   huart2.Init.HwFlowCtl = UART_HWCONTROL_NONE;
 423              		.loc 1 301 20 is_stmt 0 view .LVU132
 424 0016 0C22     		movs	r2, #12
 425 0018 4261     		str	r2, [r0, #20]
 302:Src/main.c    ****   huart2.Init.OverSampling = UART_OVERSAMPLING_16;
 426              		.loc 1 302 3 is_stmt 1 view .LVU133
 302:Src/main.c    ****   huart2.Init.OverSampling = UART_OVERSAMPLING_16;
 427              		.loc 1 302 25 is_stmt 0 view .LVU134
 428 001a 8361     		str	r3, [r0, #24]
 303:Src/main.c    ****   huart2.Init.OneBitSampling = UART_ONE_BIT_SAMPLE_DISABLE;
 429              		.loc 1 303 3 is_stmt 1 view .LVU135
 303:Src/main.c    ****   huart2.Init.OneBitSampling = UART_ONE_BIT_SAMPLE_DISABLE;
 430              		.loc 1 303 28 is_stmt 0 view .LVU136
 431 001c C361     		str	r3, [r0, #28]
 304:Src/main.c    ****   huart2.AdvancedInit.AdvFeatureInit = UART_ADVFEATURE_NO_INIT;
 432              		.loc 1 304 3 is_stmt 1 view .LVU137
 304:Src/main.c    ****   huart2.AdvancedInit.AdvFeatureInit = UART_ADVFEATURE_NO_INIT;
 433              		.loc 1 304 30 is_stmt 0 view .LVU138
 434 001e 0362     		str	r3, [r0, #32]
 305:Src/main.c    ****   if (HAL_UART_Init(&huart2) != HAL_OK)
 435              		.loc 1 305 3 is_stmt 1 view .LVU139
 305:Src/main.c    ****   if (HAL_UART_Init(&huart2) != HAL_OK)
 436              		.loc 1 305 38 is_stmt 0 view .LVU140
 437 0020 4362     		str	r3, [r0, #36]
 306:Src/main.c    ****   {
 438              		.loc 1 306 3 is_stmt 1 view .LVU141
 306:Src/main.c    ****   {
 439              		.loc 1 306 7 is_stmt 0 view .LVU142
 440 0022 FFF7FEFF 		bl	HAL_UART_Init
 441              	.LVL16:
 314:Src/main.c    **** 
 442              		.loc 1 314 1 view .LVU143
 443 0026 08BD     		pop	{r3, pc}
 444              	.L16:
 445              		.align	2
 446              	.L15:
 447 0028 00000000 		.word	huart2
 448 002c 00440040 		.word	1073759232
 449              		.cfi_endproc
 450              	.LFE147:
 452              		.section	.text.Delay,"ax",%progbits
 453              		.align	1
 454              		.global	Delay
 455              		.syntax unified
 456              		.thumb
 457              		.thumb_func
 458              		.fpu fpv4-sp-d16
 460              	Delay:
 461              	.LVL17:
 462              	.LFB141:
  69:Src/main.c    ****     for(; nCount != 0; nCount--);
 463              		.loc 1 69 1 is_stmt 1 view -0
ARM GAS  C:\Users\andywei\AppData\Local\Temp\ccli1twA.s 			page 17


 464              		.cfi_startproc
 465              		@ args = 0, pretend = 0, frame = 8
 466              		@ frame_needed = 0, uses_anonymous_args = 0
 467              		@ link register save eliminated.
  69:Src/main.c    ****     for(; nCount != 0; nCount--);
 468              		.loc 1 69 1 is_stmt 0 view .LVU145
 469 0000 82B0     		sub	sp, sp, #8
 470              	.LCFI6:
 471              		.cfi_def_cfa_offset 8
 472 0002 0190     		str	r0, [sp, #4]
  70:Src/main.c    **** }
 473              		.loc 1 70 5 is_stmt 1 view .LVU146
 474              	.L18:
  70:Src/main.c    **** }
 475              		.loc 1 70 11 discriminator 1 view .LVU147
  70:Src/main.c    **** }
 476              		.loc 1 70 18 is_stmt 0 discriminator 1 view .LVU148
 477 0004 019B     		ldr	r3, [sp, #4]
  70:Src/main.c    **** }
 478              		.loc 1 70 5 discriminator 1 view .LVU149
 479 0006 1BB1     		cbz	r3, .L21
  70:Src/main.c    **** }
 480              		.loc 1 70 33 is_stmt 1 discriminator 2 view .LVU150
  70:Src/main.c    **** }
 481              		.loc 1 70 24 discriminator 2 view .LVU151
  70:Src/main.c    **** }
 482              		.loc 1 70 30 is_stmt 0 discriminator 2 view .LVU152
 483 0008 019B     		ldr	r3, [sp, #4]
 484 000a 013B     		subs	r3, r3, #1
 485 000c 0193     		str	r3, [sp, #4]
 486 000e F9E7     		b	.L18
 487              	.L21:
  71:Src/main.c    **** void HAL_UART_RxCpltCallback(UART_HandleTypeDef *huart)
 488              		.loc 1 71 1 view .LVU153
 489 0010 02B0     		add	sp, sp, #8
 490              	.LCFI7:
 491              		.cfi_def_cfa_offset 0
 492              		@ sp needed
 493 0012 7047     		bx	lr
 494              		.cfi_endproc
 495              	.LFE141:
 497              		.section	.text.HAL_UART_RxCpltCallback,"ax",%progbits
 498              		.align	1
 499              		.global	HAL_UART_RxCpltCallback
 500              		.syntax unified
 501              		.thumb
 502              		.thumb_func
 503              		.fpu fpv4-sp-d16
 505              	HAL_UART_RxCpltCallback:
 506              	.LVL18:
 507              	.LFB142:
  73:Src/main.c    ****   // char xx[20];
 508              		.loc 1 73 1 is_stmt 1 view -0
 509              		.cfi_startproc
 510              		@ args = 0, pretend = 0, frame = 0
 511              		@ frame_needed = 0, uses_anonymous_args = 0
  73:Src/main.c    ****   // char xx[20];
ARM GAS  C:\Users\andywei\AppData\Local\Temp\ccli1twA.s 			page 18


 512              		.loc 1 73 1 is_stmt 0 view .LVU155
 513 0000 10B5     		push	{r4, lr}
 514              	.LCFI8:
 515              		.cfi_def_cfa_offset 8
 516              		.cfi_offset 4, -8
 517              		.cfi_offset 14, -4
 518 0002 82B0     		sub	sp, sp, #8
 519              	.LCFI9:
 520              		.cfi_def_cfa_offset 16
  81:Src/main.c    ****   HAL_UART_Receive_IT(&huart2,rx_buffer,1);
 521              		.loc 1 81 3 is_stmt 1 view .LVU156
 522 0004 074A     		ldr	r2, .L24
 523 0006 084C     		ldr	r4, .L24+4
 524 0008 0094     		str	r4, [sp]
 525 000a 4123     		movs	r3, #65
 526 000c 911E     		subs	r1, r2, #2
 527 000e 101F     		subs	r0, r2, #4
 528              	.LVL19:
  81:Src/main.c    ****   HAL_UART_Receive_IT(&huart2,rx_buffer,1);
 529              		.loc 1 81 3 is_stmt 0 view .LVU157
 530 0010 FFF7FEFF 		bl	queue_in
 531              	.LVL20:
  82:Src/main.c    ****   
 532              		.loc 1 82 3 is_stmt 1 view .LVU158
 533 0014 0122     		movs	r2, #1
 534 0016 2146     		mov	r1, r4
 535 0018 0448     		ldr	r0, .L24+8
 536 001a FFF7FEFF 		bl	HAL_UART_Receive_IT
 537              	.LVL21:
  85:Src/main.c    **** /* USER CODE END 0 */
 538              		.loc 1 85 1 is_stmt 0 view .LVU159
 539 001e 02B0     		add	sp, sp, #8
 540              	.LCFI10:
 541              		.cfi_def_cfa_offset 8
 542              		@ sp needed
 543 0020 10BD     		pop	{r4, pc}
 544              	.L25:
 545 0022 00BF     		.align	2
 546              	.L24:
 547 0024 04000000 		.word	cli_rx_buff+4
 548 0028 00000000 		.word	rx_buffer
 549 002c 00000000 		.word	huart2
 550              		.cfi_endproc
 551              	.LFE142:
 553              		.section	.text.SystemClock_Config,"ax",%progbits
 554              		.align	1
 555              		.global	SystemClock_Config
 556              		.syntax unified
 557              		.thumb
 558              		.thumb_func
 559              		.fpu fpv4-sp-d16
 561              	SystemClock_Config:
 562              	.LFB144:
 156:Src/main.c    ****   RCC_OscInitTypeDef RCC_OscInitStruct = {0};
 563              		.loc 1 156 1 is_stmt 1 view -0
 564              		.cfi_startproc
 565              		@ args = 0, pretend = 0, frame = 224
ARM GAS  C:\Users\andywei\AppData\Local\Temp\ccli1twA.s 			page 19


 566              		@ frame_needed = 0, uses_anonymous_args = 0
 567 0000 30B5     		push	{r4, r5, lr}
 568              	.LCFI11:
 569              		.cfi_def_cfa_offset 12
 570              		.cfi_offset 4, -12
 571              		.cfi_offset 5, -8
 572              		.cfi_offset 14, -4
 573 0002 B9B0     		sub	sp, sp, #228
 574              	.LCFI12:
 575              		.cfi_def_cfa_offset 240
 157:Src/main.c    ****   RCC_ClkInitTypeDef RCC_ClkInitStruct = {0};
 576              		.loc 1 157 3 view .LVU161
 157:Src/main.c    ****   RCC_ClkInitTypeDef RCC_ClkInitStruct = {0};
 577              		.loc 1 157 22 is_stmt 0 view .LVU162
 578 0004 2422     		movs	r2, #36
 579 0006 0021     		movs	r1, #0
 580 0008 28A8     		add	r0, sp, #160
 581 000a FFF7FEFF 		bl	memset
 582              	.LVL22:
 158:Src/main.c    ****   RCC_PeriphCLKInitTypeDef PeriphClkInit = {0};
 583              		.loc 1 158 3 is_stmt 1 view .LVU163
 158:Src/main.c    ****   RCC_PeriphCLKInitTypeDef PeriphClkInit = {0};
 584              		.loc 1 158 22 is_stmt 0 view .LVU164
 585 000e 0024     		movs	r4, #0
 586 0010 2294     		str	r4, [sp, #136]
 587 0012 2394     		str	r4, [sp, #140]
 588 0014 2494     		str	r4, [sp, #144]
 589 0016 2594     		str	r4, [sp, #148]
 590 0018 2694     		str	r4, [sp, #152]
 159:Src/main.c    **** 
 591              		.loc 1 159 3 is_stmt 1 view .LVU165
 159:Src/main.c    **** 
 592              		.loc 1 159 28 is_stmt 0 view .LVU166
 593 001a 8822     		movs	r2, #136
 594 001c 2146     		mov	r1, r4
 595 001e 6846     		mov	r0, sp
 596 0020 FFF7FEFF 		bl	memset
 597              	.LVL23:
 164:Src/main.c    ****   RCC_OscInitStruct.HSIState = RCC_HSI_ON;
 598              		.loc 1 164 3 is_stmt 1 view .LVU167
 164:Src/main.c    ****   RCC_OscInitStruct.HSIState = RCC_HSI_ON;
 599              		.loc 1 164 36 is_stmt 0 view .LVU168
 600 0024 0223     		movs	r3, #2
 601 0026 2793     		str	r3, [sp, #156]
 165:Src/main.c    ****   RCC_OscInitStruct.HSICalibrationValue = RCC_HSICALIBRATION_DEFAULT;
 602              		.loc 1 165 3 is_stmt 1 view .LVU169
 165:Src/main.c    ****   RCC_OscInitStruct.HSICalibrationValue = RCC_HSICALIBRATION_DEFAULT;
 603              		.loc 1 165 30 is_stmt 0 view .LVU170
 604 0028 4FF48072 		mov	r2, #256
 605 002c 2A92     		str	r2, [sp, #168]
 166:Src/main.c    ****   RCC_OscInitStruct.PLL.PLLState = RCC_PLL_ON;
 606              		.loc 1 166 3 is_stmt 1 view .LVU171
 166:Src/main.c    ****   RCC_OscInitStruct.PLL.PLLState = RCC_PLL_ON;
 607              		.loc 1 166 41 is_stmt 0 view .LVU172
 608 002e 1022     		movs	r2, #16
 609 0030 2B92     		str	r2, [sp, #172]
 167:Src/main.c    ****   RCC_OscInitStruct.PLL.PLLSource = RCC_PLLSOURCE_HSI;
ARM GAS  C:\Users\andywei\AppData\Local\Temp\ccli1twA.s 			page 20


 610              		.loc 1 167 3 is_stmt 1 view .LVU173
 167:Src/main.c    ****   RCC_OscInitStruct.PLL.PLLSource = RCC_PLLSOURCE_HSI;
 611              		.loc 1 167 34 is_stmt 0 view .LVU174
 612 0032 3193     		str	r3, [sp, #196]
 168:Src/main.c    ****   RCC_OscInitStruct.PLL.PLLM = 1;
 613              		.loc 1 168 3 is_stmt 1 view .LVU175
 168:Src/main.c    ****   RCC_OscInitStruct.PLL.PLLM = 1;
 614              		.loc 1 168 35 is_stmt 0 view .LVU176
 615 0034 3293     		str	r3, [sp, #200]
 169:Src/main.c    ****   RCC_OscInitStruct.PLL.PLLN = 10;
 616              		.loc 1 169 3 is_stmt 1 view .LVU177
 169:Src/main.c    ****   RCC_OscInitStruct.PLL.PLLN = 10;
 617              		.loc 1 169 30 is_stmt 0 view .LVU178
 618 0036 0122     		movs	r2, #1
 619 0038 3392     		str	r2, [sp, #204]
 170:Src/main.c    ****   RCC_OscInitStruct.PLL.PLLP = RCC_PLLP_DIV7;
 620              		.loc 1 170 3 is_stmt 1 view .LVU179
 170:Src/main.c    ****   RCC_OscInitStruct.PLL.PLLP = RCC_PLLP_DIV7;
 621              		.loc 1 170 30 is_stmt 0 view .LVU180
 622 003a 0A22     		movs	r2, #10
 623 003c 3492     		str	r2, [sp, #208]
 171:Src/main.c    ****   RCC_OscInitStruct.PLL.PLLQ = RCC_PLLQ_DIV2;
 624              		.loc 1 171 3 is_stmt 1 view .LVU181
 171:Src/main.c    ****   RCC_OscInitStruct.PLL.PLLQ = RCC_PLLQ_DIV2;
 625              		.loc 1 171 30 is_stmt 0 view .LVU182
 626 003e 0722     		movs	r2, #7
 627 0040 3592     		str	r2, [sp, #212]
 172:Src/main.c    ****   RCC_OscInitStruct.PLL.PLLR = RCC_PLLR_DIV2;
 628              		.loc 1 172 3 is_stmt 1 view .LVU183
 172:Src/main.c    ****   RCC_OscInitStruct.PLL.PLLR = RCC_PLLR_DIV2;
 629              		.loc 1 172 30 is_stmt 0 view .LVU184
 630 0042 3693     		str	r3, [sp, #216]
 173:Src/main.c    ****   if (HAL_RCC_OscConfig(&RCC_OscInitStruct) != HAL_OK)
 631              		.loc 1 173 3 is_stmt 1 view .LVU185
 173:Src/main.c    ****   if (HAL_RCC_OscConfig(&RCC_OscInitStruct) != HAL_OK)
 632              		.loc 1 173 30 is_stmt 0 view .LVU186
 633 0044 3793     		str	r3, [sp, #220]
 174:Src/main.c    ****   {
 634              		.loc 1 174 3 is_stmt 1 view .LVU187
 174:Src/main.c    ****   {
 635              		.loc 1 174 7 is_stmt 0 view .LVU188
 636 0046 27A8     		add	r0, sp, #156
 637 0048 FFF7FEFF 		bl	HAL_RCC_OscConfig
 638              	.LVL24:
 180:Src/main.c    ****                               |RCC_CLOCKTYPE_PCLK1|RCC_CLOCKTYPE_PCLK2;
 639              		.loc 1 180 3 is_stmt 1 view .LVU189
 180:Src/main.c    ****                               |RCC_CLOCKTYPE_PCLK1|RCC_CLOCKTYPE_PCLK2;
 640              		.loc 1 180 31 is_stmt 0 view .LVU190
 641 004c 0F23     		movs	r3, #15
 642 004e 2293     		str	r3, [sp, #136]
 182:Src/main.c    ****   RCC_ClkInitStruct.AHBCLKDivider = RCC_SYSCLK_DIV1;
 643              		.loc 1 182 3 is_stmt 1 view .LVU191
 182:Src/main.c    ****   RCC_ClkInitStruct.AHBCLKDivider = RCC_SYSCLK_DIV1;
 644              		.loc 1 182 34 is_stmt 0 view .LVU192
 645 0050 0325     		movs	r5, #3
 646 0052 2395     		str	r5, [sp, #140]
 183:Src/main.c    ****   RCC_ClkInitStruct.APB1CLKDivider = RCC_HCLK_DIV1;
ARM GAS  C:\Users\andywei\AppData\Local\Temp\ccli1twA.s 			page 21


 647              		.loc 1 183 3 is_stmt 1 view .LVU193
 183:Src/main.c    ****   RCC_ClkInitStruct.APB1CLKDivider = RCC_HCLK_DIV1;
 648              		.loc 1 183 35 is_stmt 0 view .LVU194
 649 0054 2494     		str	r4, [sp, #144]
 184:Src/main.c    ****   RCC_ClkInitStruct.APB2CLKDivider = RCC_HCLK_DIV1;
 650              		.loc 1 184 3 is_stmt 1 view .LVU195
 184:Src/main.c    ****   RCC_ClkInitStruct.APB2CLKDivider = RCC_HCLK_DIV1;
 651              		.loc 1 184 36 is_stmt 0 view .LVU196
 652 0056 2594     		str	r4, [sp, #148]
 185:Src/main.c    **** 
 653              		.loc 1 185 3 is_stmt 1 view .LVU197
 185:Src/main.c    **** 
 654              		.loc 1 185 36 is_stmt 0 view .LVU198
 655 0058 2694     		str	r4, [sp, #152]
 187:Src/main.c    ****   {
 656              		.loc 1 187 3 is_stmt 1 view .LVU199
 187:Src/main.c    ****   {
 657              		.loc 1 187 7 is_stmt 0 view .LVU200
 658 005a 0421     		movs	r1, #4
 659 005c 22A8     		add	r0, sp, #136
 660 005e FFF7FEFF 		bl	HAL_RCC_ClockConfig
 661              	.LVL25:
 191:Src/main.c    ****   PeriphClkInit.Usart1ClockSelection = RCC_USART1CLKSOURCE_PCLK2;
 662              		.loc 1 191 3 is_stmt 1 view .LVU201
 191:Src/main.c    ****   PeriphClkInit.Usart1ClockSelection = RCC_USART1CLKSOURCE_PCLK2;
 663              		.loc 1 191 38 is_stmt 0 view .LVU202
 664 0062 0095     		str	r5, [sp]
 192:Src/main.c    ****   PeriphClkInit.Usart2ClockSelection = RCC_USART2CLKSOURCE_PCLK1;
 665              		.loc 1 192 3 is_stmt 1 view .LVU203
 192:Src/main.c    ****   PeriphClkInit.Usart2ClockSelection = RCC_USART2CLKSOURCE_PCLK1;
 666              		.loc 1 192 38 is_stmt 0 view .LVU204
 667 0064 0E94     		str	r4, [sp, #56]
 193:Src/main.c    ****   if (HAL_RCCEx_PeriphCLKConfig(&PeriphClkInit) != HAL_OK)
 668              		.loc 1 193 3 is_stmt 1 view .LVU205
 193:Src/main.c    ****   if (HAL_RCCEx_PeriphCLKConfig(&PeriphClkInit) != HAL_OK)
 669              		.loc 1 193 38 is_stmt 0 view .LVU206
 670 0066 0F94     		str	r4, [sp, #60]
 194:Src/main.c    ****   {
 671              		.loc 1 194 3 is_stmt 1 view .LVU207
 194:Src/main.c    ****   {
 672              		.loc 1 194 7 is_stmt 0 view .LVU208
 673 0068 6846     		mov	r0, sp
 674 006a FFF7FEFF 		bl	HAL_RCCEx_PeriphCLKConfig
 675              	.LVL26:
 200:Src/main.c    ****   {
 676              		.loc 1 200 3 is_stmt 1 view .LVU209
 200:Src/main.c    ****   {
 677              		.loc 1 200 7 is_stmt 0 view .LVU210
 678 006e 4FF40070 		mov	r0, #512
 679 0072 FFF7FEFF 		bl	HAL_PWREx_ControlVoltageScaling
 680              	.LVL27:
 204:Src/main.c    **** 
 681              		.loc 1 204 1 view .LVU211
 682 0076 39B0     		add	sp, sp, #228
 683              	.LCFI13:
 684              		.cfi_def_cfa_offset 12
 685              		@ sp needed
ARM GAS  C:\Users\andywei\AppData\Local\Temp\ccli1twA.s 			page 22


 686 0078 30BD     		pop	{r4, r5, pc}
 687              		.cfi_endproc
 688              	.LFE144:
 690              		.section	.text.main,"ax",%progbits
 691              		.align	1
 692              		.global	main
 693              		.syntax unified
 694              		.thumb
 695              		.thumb_func
 696              		.fpu fpv4-sp-d16
 698              	main:
 699              	.LFB143:
  93:Src/main.c    ****   /* USER CODE BEGIN 1 */
 700              		.loc 1 93 1 is_stmt 1 view -0
 701              		.cfi_startproc
 702              		@ args = 0, pretend = 0, frame = 0
 703              		@ frame_needed = 0, uses_anonymous_args = 0
 704 0000 08B5     		push	{r3, lr}
 705              	.LCFI14:
 706              		.cfi_def_cfa_offset 8
 707              		.cfi_offset 3, -8
 708              		.cfi_offset 14, -4
  95:Src/main.c    **** 	uint16_t  Input_Result[2];
 709              		.loc 1 95 3 view .LVU213
 710              	.LVL28:
  96:Src/main.c    ****   uint8_t result;
 711              		.loc 1 96 2 view .LVU214
  97:Src/main.c    ****   /* USER CODE END 1 */
 712              		.loc 1 97 3 view .LVU215
 103:Src/main.c    **** 
 713              		.loc 1 103 3 view .LVU216
 714 0002 FFF7FEFF 		bl	HAL_Init
 715              	.LVL29:
 110:Src/main.c    **** 
 716              		.loc 1 110 3 view .LVU217
 717 0006 FFF7FEFF 		bl	SystemClock_Config
 718              	.LVL30:
 113:Src/main.c    ****   /* USER CODE END SysInit */
 719              		.loc 1 113 3 view .LVU218
 720 000a FFF7FEFF 		bl	ModbusMaster_begin
 721              	.LVL31:
 117:Src/main.c    ****   MX_SPI1_Init();
 722              		.loc 1 117 3 view .LVU219
 723 000e FFF7FEFF 		bl	MX_GPIO_Init
 724              	.LVL32:
 118:Src/main.c    ****   
 725              		.loc 1 118 3 view .LVU220
 726 0012 FFF7FEFF 		bl	MX_SPI1_Init
 727              	.LVL33:
 120:Src/main.c    ****   MX_USART2_UART_Init();
 728              		.loc 1 120 3 view .LVU221
 729 0016 FFF7FEFF 		bl	MX_USART1_UART_Init
 730              	.LVL34:
 121:Src/main.c    ****   /* USER CODE BEGIN 2 */
 731              		.loc 1 121 3 view .LVU222
 732 001a FFF7FEFF 		bl	MX_USART2_UART_Init
 733              	.LVL35:
ARM GAS  C:\Users\andywei\AppData\Local\Temp\ccli1twA.s 			page 23


 123:Src/main.c    ****   CLI_INIT(CLI_BAUDRATE);
 734              		.loc 1 123 3 view .LVU223
 735 001e 0122     		movs	r2, #1
 736 0020 0649     		ldr	r1, .L31
 737 0022 0748     		ldr	r0, .L31+4
 738 0024 FFF7FEFF 		bl	HAL_UART_Receive_IT
 739              	.LVL36:
 124:Src/main.c    ****   /* USER CODE END 2 */
 740              		.loc 1 124 3 view .LVU224
 741 0028 4FF4E130 		mov	r0, #115200
 742 002c FFF7FEFF 		bl	cli_init
 743              	.LVL37:
 744              	.L29:
 129:Src/main.c    ****   {
 745              		.loc 1 129 3 discriminator 1 view .LVU225
 746              	.LBB5:
 142:Src/main.c    ****     HAL_Delay(100);
 747              		.loc 1 142 5 discriminator 1 view .LVU226
 748 0030 FFF7FEFF 		bl	cli_run
 749              	.LVL38:
 143:Src/main.c    ****     /* USER CODE END WHILE */
 750              		.loc 1 143 5 discriminator 1 view .LVU227
 751 0034 6420     		movs	r0, #100
 752 0036 FFF7FEFF 		bl	HAL_Delay
 753              	.LVL39:
 754              	.LBE5:
 129:Src/main.c    ****   {
 755              		.loc 1 129 9 discriminator 1 view .LVU228
 756 003a F9E7     		b	.L29
 757              	.L32:
 758              		.align	2
 759              	.L31:
 760 003c 00000000 		.word	rx_buffer
 761 0040 00000000 		.word	huart2
 762              		.cfi_endproc
 763              	.LFE143:
 765              		.section	.text.fputc,"ax",%progbits
 766              		.align	1
 767              		.global	fputc
 768              		.syntax unified
 769              		.thumb
 770              		.thumb_func
 771              		.fpu fpv4-sp-d16
 773              	fputc:
 774              	.LVL40:
 775              	.LFB149:
 378:Src/main.c    **** 
 379:Src/main.c    **** /* USER CODE BEGIN 4 */
 380:Src/main.c    **** int fputc(int ch, FILE *f)
 381:Src/main.c    **** {
 776              		.loc 1 381 1 view -0
 777              		.cfi_startproc
 778              		@ args = 0, pretend = 0, frame = 0
 779              		@ frame_needed = 0, uses_anonymous_args = 0
 780              		.loc 1 381 1 is_stmt 0 view .LVU230
 781 0000 10B5     		push	{r4, lr}
 782              	.LCFI15:
ARM GAS  C:\Users\andywei\AppData\Local\Temp\ccli1twA.s 			page 24


 783              		.cfi_def_cfa_offset 8
 784              		.cfi_offset 4, -8
 785              		.cfi_offset 14, -4
 786 0002 0446     		mov	r4, r0
 382:Src/main.c    ****     //Tx_Byte((uint8_t)ch);
 383:Src/main.c    ****     Tx_Byte_To_Cat((uint8_t)ch);
 787              		.loc 1 383 5 is_stmt 1 view .LVU231
 788 0004 C0B2     		uxtb	r0, r0
 789              	.LVL41:
 790              		.loc 1 383 5 is_stmt 0 view .LVU232
 791 0006 FFF7FEFF 		bl	Tx_Byte_To_Cat
 792              	.LVL42:
 384:Src/main.c    ****     return ch;
 793              		.loc 1 384 5 is_stmt 1 view .LVU233
 385:Src/main.c    **** }
 794              		.loc 1 385 1 is_stmt 0 view .LVU234
 795 000a 2046     		mov	r0, r4
 796 000c 10BD     		pop	{r4, pc}
 797              		.loc 1 385 1 view .LVU235
 798              		.cfi_endproc
 799              	.LFE149:
 801              		.section	.text.Error_Handler,"ax",%progbits
 802              		.align	1
 803              		.global	Error_Handler
 804              		.syntax unified
 805              		.thumb
 806              		.thumb_func
 807              		.fpu fpv4-sp-d16
 809              	Error_Handler:
 810              	.LFB150:
 386:Src/main.c    **** 
 387:Src/main.c    **** /* USER CODE END 4 */
 388:Src/main.c    **** 
 389:Src/main.c    **** /**
 390:Src/main.c    ****   * @brief  This function is executed in case of error occurrence.
 391:Src/main.c    ****   * @retval None
 392:Src/main.c    ****   */
 393:Src/main.c    **** void Error_Handler(void)
 394:Src/main.c    **** {
 811              		.loc 1 394 1 is_stmt 1 view -0
 812              		.cfi_startproc
 813              		@ args = 0, pretend = 0, frame = 0
 814              		@ frame_needed = 0, uses_anonymous_args = 0
 815              		@ link register save eliminated.
 395:Src/main.c    ****   /* USER CODE BEGIN Error_Handler_Debug */
 396:Src/main.c    ****   /* User can add his own implementation to report the HAL error return state */
 397:Src/main.c    **** 
 398:Src/main.c    ****   /* USER CODE END Error_Handler_Debug */
 399:Src/main.c    **** }
 816              		.loc 1 399 1 view .LVU237
 817 0000 7047     		bx	lr
 818              		.cfi_endproc
 819              	.LFE150:
 821              		.comm	rx_buffer,20,4
 822              		.comm	huart2,128,4
 823              		.comm	huart1,128,4
 824              		.comm	hspi1,100,4
ARM GAS  C:\Users\andywei\AppData\Local\Temp\ccli1twA.s 			page 25


 825              		.text
 826              	.Letext0:
 827              		.file 2 "c:\\gnu arm embedded toolchain\\9 2020-q2-update\\arm-none-eabi\\include\\machine\\_defau
 828              		.file 3 "c:\\gnu arm embedded toolchain\\9 2020-q2-update\\arm-none-eabi\\include\\sys\\_stdint.h"
 829              		.file 4 "Drivers/CMSIS/Include/core_cm4.h"
 830              		.file 5 "Drivers/CMSIS/Device/ST/STM32L4xx/Include/system_stm32l4xx.h"
 831              		.file 6 "Drivers/CMSIS/Device/ST/STM32L4xx/Include/stm32l476xx.h"
 832              		.file 7 "Drivers/STM32L4xx_HAL_Driver/Inc/stm32l4xx_hal_def.h"
 833              		.file 8 "Drivers/STM32L4xx_HAL_Driver/Inc/stm32l4xx_hal_rcc.h"
 834              		.file 9 "Drivers/STM32L4xx_HAL_Driver/Inc/stm32l4xx_hal_rcc_ex.h"
 835              		.file 10 "Drivers/STM32L4xx_HAL_Driver/Inc/stm32l4xx_hal_gpio.h"
 836              		.file 11 "Drivers/STM32L4xx_HAL_Driver/Inc/stm32l4xx_hal_dma.h"
 837              		.file 12 "Drivers/STM32L4xx_HAL_Driver/Inc/stm32l4xx_hal_flash.h"
 838              		.file 13 "Drivers/STM32L4xx_HAL_Driver/Inc/stm32l4xx_hal_spi.h"
 839              		.file 14 "Drivers/STM32L4xx_HAL_Driver/Inc/stm32l4xx_hal_uart.h"
 840              		.file 15 "Drivers/STM32L4xx_HAL_Driver/Inc/stm32l4xx_hal.h"
 841              		.file 16 "c:\\gnu arm embedded toolchain\\9 2020-q2-update\\lib\\gcc\\arm-none-eabi\\9.3.1\\includ
 842              		.file 17 "c:\\gnu arm embedded toolchain\\9 2020-q2-update\\arm-none-eabi\\include\\sys\\_types.h"
 843              		.file 18 "c:\\gnu arm embedded toolchain\\9 2020-q2-update\\arm-none-eabi\\include\\sys\\reent.h"
 844              		.file 19 "c:\\gnu arm embedded toolchain\\9 2020-q2-update\\arm-none-eabi\\include\\sys\\lock.h"
 845              		.file 20 "c:\\gnu arm embedded toolchain\\9 2020-q2-update\\arm-none-eabi\\include\\stdio.h"
 846              		.file 21 "c:\\gnu arm embedded toolchain\\9 2020-q2-update\\arm-none-eabi\\include\\ctype.h"
 847              		.file 22 "c:\\gnu arm embedded toolchain\\9 2020-q2-update\\arm-none-eabi\\include\\time.h"
 848              		.file 23 "Src/SYS/sys_queue.h"
 849              		.file 24 "Src/SYS/sys_command_line.h"
 850              		.file 25 "Inc/CAT_Com.h"
 851              		.file 26 "Drivers/STM32L4xx_HAL_Driver/Inc/stm32l4xx_hal_cortex.h"
 852              		.file 27 "Drivers/STM32L4xx_HAL_Driver/Inc/stm32l4xx_hal_pwr_ex.h"
 853              		.file 28 "Src/Modbus_Master/modbus_master.h"
 854              		.file 29 "<built-in>"
ARM GAS  C:\Users\andywei\AppData\Local\Temp\ccli1twA.s 			page 26


DEFINED SYMBOLS
                            *ABS*:00000000 main.c
C:\Users\andywei\AppData\Local\Temp\ccli1twA.s:18     .text.MX_GPIO_Init:00000000 $t
C:\Users\andywei\AppData\Local\Temp\ccli1twA.s:25     .text.MX_GPIO_Init:00000000 MX_GPIO_Init
C:\Users\andywei\AppData\Local\Temp\ccli1twA.s:227    .text.MX_GPIO_Init:000000f8 $d
C:\Users\andywei\AppData\Local\Temp\ccli1twA.s:236    .text.MX_SPI1_Init:00000000 $t
C:\Users\andywei\AppData\Local\Temp\ccli1twA.s:242    .text.MX_SPI1_Init:00000000 MX_SPI1_Init
C:\Users\andywei\AppData\Local\Temp\ccli1twA.s:313    .text.MX_SPI1_Init:0000003c $d
                            *COM*:00000064 hspi1
C:\Users\andywei\AppData\Local\Temp\ccli1twA.s:319    .text.MX_USART1_UART_Init:00000000 $t
C:\Users\andywei\AppData\Local\Temp\ccli1twA.s:325    .text.MX_USART1_UART_Init:00000000 MX_USART1_UART_Init
C:\Users\andywei\AppData\Local\Temp\ccli1twA.s:380    .text.MX_USART1_UART_Init:00000028 $d
                            *COM*:00000080 huart1
C:\Users\andywei\AppData\Local\Temp\ccli1twA.s:386    .text.MX_USART2_UART_Init:00000000 $t
C:\Users\andywei\AppData\Local\Temp\ccli1twA.s:392    .text.MX_USART2_UART_Init:00000000 MX_USART2_UART_Init
C:\Users\andywei\AppData\Local\Temp\ccli1twA.s:447    .text.MX_USART2_UART_Init:00000028 $d
                            *COM*:00000080 huart2
C:\Users\andywei\AppData\Local\Temp\ccli1twA.s:453    .text.Delay:00000000 $t
C:\Users\andywei\AppData\Local\Temp\ccli1twA.s:460    .text.Delay:00000000 Delay
C:\Users\andywei\AppData\Local\Temp\ccli1twA.s:498    .text.HAL_UART_RxCpltCallback:00000000 $t
C:\Users\andywei\AppData\Local\Temp\ccli1twA.s:505    .text.HAL_UART_RxCpltCallback:00000000 HAL_UART_RxCpltCallback
C:\Users\andywei\AppData\Local\Temp\ccli1twA.s:547    .text.HAL_UART_RxCpltCallback:00000024 $d
                            *COM*:00000014 rx_buffer
C:\Users\andywei\AppData\Local\Temp\ccli1twA.s:554    .text.SystemClock_Config:00000000 $t
C:\Users\andywei\AppData\Local\Temp\ccli1twA.s:561    .text.SystemClock_Config:00000000 SystemClock_Config
C:\Users\andywei\AppData\Local\Temp\ccli1twA.s:691    .text.main:00000000 $t
C:\Users\andywei\AppData\Local\Temp\ccli1twA.s:698    .text.main:00000000 main
C:\Users\andywei\AppData\Local\Temp\ccli1twA.s:760    .text.main:0000003c $d
C:\Users\andywei\AppData\Local\Temp\ccli1twA.s:766    .text.fputc:00000000 $t
C:\Users\andywei\AppData\Local\Temp\ccli1twA.s:773    .text.fputc:00000000 fputc
C:\Users\andywei\AppData\Local\Temp\ccli1twA.s:802    .text.Error_Handler:00000000 $t
C:\Users\andywei\AppData\Local\Temp\ccli1twA.s:809    .text.Error_Handler:00000000 Error_Handler

UNDEFINED SYMBOLS
HAL_GPIO_WritePin
HAL_GPIO_Init
HAL_NVIC_SetPriority
HAL_NVIC_EnableIRQ
HAL_SPI_Init
HAL_UART_Init
queue_in
HAL_UART_Receive_IT
cli_rx_buff
memset
HAL_RCC_OscConfig
HAL_RCC_ClockConfig
HAL_RCCEx_PeriphCLKConfig
HAL_PWREx_ControlVoltageScaling
HAL_Init
ModbusMaster_begin
cli_init
cli_run
HAL_Delay
Tx_Byte_To_Cat
