ARM GAS  C:\Users\andywei\AppData\Local\Temp\cc22ulNc.s 			page 1


   1              		.cpu cortex-m4
   2              		.eabi_attribute 27, 1
   3              		.eabi_attribute 28, 1
   4              		.eabi_attribute 20, 1
   5              		.eabi_attribute 21, 1
   6              		.eabi_attribute 23, 3
   7              		.eabi_attribute 24, 1
   8              		.eabi_attribute 25, 1
   9              		.eabi_attribute 26, 1
  10              		.eabi_attribute 30, 1
  11              		.eabi_attribute 34, 1
  12              		.eabi_attribute 18, 4
  13              		.file	"ringbuffer.c"
  14              		.text
  15              	.Ltext0:
  16              		.cfi_sections	.debug_frame
  17              		.section	.text.rbInitialize,"ax",%progbits
  18              		.align	1
  19              		.global	rbInitialize
  20              		.arch armv7e-m
  21              		.syntax unified
  22              		.thumb
  23              		.thumb_func
  24              		.fpu fpv4-sp-d16
  26              	rbInitialize:
  27              	.LVL0:
  28              	.LFB135:
  29              		.file 1 "Src/Modbus_Master/ringbuffer.c"
   1:Src/Modbus_Master/ringbuffer.c **** #include "ringbuffer.h"
   2:Src/Modbus_Master/ringbuffer.c **** /**
   3:Src/Modbus_Master/ringbuffer.c ****   * @brief  rbInitialize初始化配置，将缓冲区信息填入结构体
   4:Src/Modbus_Master/ringbuffer.c ****   * @param  pRingBuff:ringbuffer结构体
   5:Src/Modbus_Master/ringbuffer.c **** 	*         buff：数据缓冲区
   6:Src/Modbus_Master/ringbuffer.c **** 	*         length：缓冲区大小
   7:Src/Modbus_Master/ringbuffer.c ****   * @note   
   8:Src/Modbus_Master/ringbuffer.c ****   * @retval void
   9:Src/Modbus_Master/ringbuffer.c ****   * @author xiaodaqi
  10:Src/Modbus_Master/ringbuffer.c ****   */	
  11:Src/Modbus_Master/ringbuffer.c **** void rbInitialize(RingBuffer* pRingBuff, uint8_t* buff, uint16_t length)
  12:Src/Modbus_Master/ringbuffer.c **** {
  30              		.loc 1 12 1 view -0
  31              		.cfi_startproc
  32              		@ args = 0, pretend = 0, frame = 0
  33              		@ frame_needed = 0, uses_anonymous_args = 0
  34              		@ link register save eliminated.
  13:Src/Modbus_Master/ringbuffer.c **** 	pRingBuff->pBuff = buff;
  35              		.loc 1 13 2 view .LVU1
  36              		.loc 1 13 19 is_stmt 0 view .LVU2
  37 0000 0160     		str	r1, [r0]
  14:Src/Modbus_Master/ringbuffer.c **** 	pRingBuff->pEnd  = buff + length;
  38              		.loc 1 14 2 is_stmt 1 view .LVU3
  39              		.loc 1 14 26 is_stmt 0 view .LVU4
  40 0002 8B18     		adds	r3, r1, r2
  41              		.loc 1 14 19 view .LVU5
  42 0004 4360     		str	r3, [r0, #4]
  15:Src/Modbus_Master/ringbuffer.c **** 	pRingBuff->wp = buff;
  43              		.loc 1 15 2 is_stmt 1 view .LVU6
ARM GAS  C:\Users\andywei\AppData\Local\Temp\cc22ulNc.s 			page 2


  44              		.loc 1 15 16 is_stmt 0 view .LVU7
  45 0006 8160     		str	r1, [r0, #8]
  16:Src/Modbus_Master/ringbuffer.c **** 	pRingBuff->rp = buff;
  46              		.loc 1 16 2 is_stmt 1 view .LVU8
  47              		.loc 1 16 16 is_stmt 0 view .LVU9
  48 0008 C160     		str	r1, [r0, #12]
  17:Src/Modbus_Master/ringbuffer.c **** 	pRingBuff->length = length;
  49              		.loc 1 17 2 is_stmt 1 view .LVU10
  50              		.loc 1 17 20 is_stmt 0 view .LVU11
  51 000a 0282     		strh	r2, [r0, #16]	@ movhi
  18:Src/Modbus_Master/ringbuffer.c **** 	pRingBuff->flagOverflow = 0;
  52              		.loc 1 18 2 is_stmt 1 view .LVU12
  53              		.loc 1 18 26 is_stmt 0 view .LVU13
  54 000c 0023     		movs	r3, #0
  55 000e 8374     		strb	r3, [r0, #18]
  19:Src/Modbus_Master/ringbuffer.c **** }
  56              		.loc 1 19 1 view .LVU14
  57 0010 7047     		bx	lr
  58              		.cfi_endproc
  59              	.LFE135:
  61              		.section	.text.rbClear,"ax",%progbits
  62              		.align	1
  63              		.global	rbClear
  64              		.syntax unified
  65              		.thumb
  66              		.thumb_func
  67              		.fpu fpv4-sp-d16
  69              	rbClear:
  70              	.LVL1:
  71              	.LFB136:
  20:Src/Modbus_Master/ringbuffer.c **** 
  21:Src/Modbus_Master/ringbuffer.c **** /**
  22:Src/Modbus_Master/ringbuffer.c ****   * @brief  清除ringbuffer结构体的相关信息
  23:Src/Modbus_Master/ringbuffer.c ****   * @param  pRingBuff：待处理的ringbuffer
  24:Src/Modbus_Master/ringbuffer.c ****   * @note   
  25:Src/Modbus_Master/ringbuffer.c ****   * @retval void
  26:Src/Modbus_Master/ringbuffer.c ****   * @author xiaodaqi
  27:Src/Modbus_Master/ringbuffer.c ****   */	
  28:Src/Modbus_Master/ringbuffer.c **** 
  29:Src/Modbus_Master/ringbuffer.c ****  void rbClear(RingBuffer* pRingBuff)
  30:Src/Modbus_Master/ringbuffer.c **** {
  72              		.loc 1 30 1 is_stmt 1 view -0
  73              		.cfi_startproc
  74              		@ args = 0, pretend = 0, frame = 0
  75              		@ frame_needed = 0, uses_anonymous_args = 0
  76              		@ link register save eliminated.
  31:Src/Modbus_Master/ringbuffer.c ****  	pRingBuff->wp = pRingBuff->pBuff;
  77              		.loc 1 31 3 view .LVU16
  78              		.loc 1 31 28 is_stmt 0 view .LVU17
  79 0000 0368     		ldr	r3, [r0]
  80              		.loc 1 31 17 view .LVU18
  81 0002 8360     		str	r3, [r0, #8]
  32:Src/Modbus_Master/ringbuffer.c **** 	pRingBuff->rp = pRingBuff->pBuff;
  82              		.loc 1 32 2 is_stmt 1 view .LVU19
  83              		.loc 1 32 16 is_stmt 0 view .LVU20
  84 0004 C360     		str	r3, [r0, #12]
  33:Src/Modbus_Master/ringbuffer.c **** 	pRingBuff->flagOverflow = 0;
ARM GAS  C:\Users\andywei\AppData\Local\Temp\cc22ulNc.s 			page 3


  85              		.loc 1 33 2 is_stmt 1 view .LVU21
  86              		.loc 1 33 26 is_stmt 0 view .LVU22
  87 0006 0023     		movs	r3, #0
  88 0008 8374     		strb	r3, [r0, #18]
  34:Src/Modbus_Master/ringbuffer.c **** }
  89              		.loc 1 34 1 view .LVU23
  90 000a 7047     		bx	lr
  91              		.cfi_endproc
  92              	.LFE136:
  94              		.section	.text.rbPush,"ax",%progbits
  95              		.align	1
  96              		.global	rbPush
  97              		.syntax unified
  98              		.thumb
  99              		.thumb_func
 100              		.fpu fpv4-sp-d16
 102              	rbPush:
 103              	.LVL2:
 104              	.LFB137:
  35:Src/Modbus_Master/ringbuffer.c **** 
  36:Src/Modbus_Master/ringbuffer.c **** /**
  37:Src/Modbus_Master/ringbuffer.c ****   * @brief  压入单字节到缓冲区
  38:Src/Modbus_Master/ringbuffer.c ****   * @param  pRingBuff：待处理的ringbuffer
  39:Src/Modbus_Master/ringbuffer.c ****   *         value：压入的数据
  40:Src/Modbus_Master/ringbuffer.c ****   * @note   
  41:Src/Modbus_Master/ringbuffer.c ****   * @retval void
  42:Src/Modbus_Master/ringbuffer.c ****   * @author xiaodaqi
  43:Src/Modbus_Master/ringbuffer.c ****   */	
  44:Src/Modbus_Master/ringbuffer.c ****  void rbPush(RingBuffer* pRingBuff, uint8_t value)
  45:Src/Modbus_Master/ringbuffer.c **** {
 105              		.loc 1 45 1 is_stmt 1 view -0
 106              		.cfi_startproc
 107              		@ args = 0, pretend = 0, frame = 0
 108              		@ frame_needed = 0, uses_anonymous_args = 0
 109              		@ link register save eliminated.
 110              		.loc 1 45 1 is_stmt 0 view .LVU25
 111 0000 10B4     		push	{r4}
 112              	.LCFI0:
 113              		.cfi_def_cfa_offset 4
 114              		.cfi_offset 4, -4
  46:Src/Modbus_Master/ringbuffer.c **** 	uint8_t* wp_next = pRingBuff->wp + 1;
 115              		.loc 1 46 2 is_stmt 1 view .LVU26
 116              		.loc 1 46 30 is_stmt 0 view .LVU27
 117 0002 8268     		ldr	r2, [r0, #8]
 118              		.loc 1 46 11 view .LVU28
 119 0004 531C     		adds	r3, r2, #1
 120              	.LVL3:
  47:Src/Modbus_Master/ringbuffer.c **** 	if( wp_next == pRingBuff->pEnd ) {
 121              		.loc 1 47 2 is_stmt 1 view .LVU29
 122              		.loc 1 47 26 is_stmt 0 view .LVU30
 123 0006 4468     		ldr	r4, [r0, #4]
 124              		.loc 1 47 4 view .LVU31
 125 0008 9C42     		cmp	r4, r3
 126 000a 07D0     		beq	.L8
 127              	.L4:
  48:Src/Modbus_Master/ringbuffer.c **** 		wp_next -= pRingBuff->length; // Rewind pointer when exceeds bound
  49:Src/Modbus_Master/ringbuffer.c **** 	}
ARM GAS  C:\Users\andywei\AppData\Local\Temp\cc22ulNc.s 			page 4


  50:Src/Modbus_Master/ringbuffer.c **** 	if( wp_next != pRingBuff->rp ) {
 128              		.loc 1 50 2 is_stmt 1 view .LVU32
 129              		.loc 1 50 26 is_stmt 0 view .LVU33
 130 000c C468     		ldr	r4, [r0, #12]
 131              		.loc 1 50 4 view .LVU34
 132 000e 9C42     		cmp	r4, r3
 133 0010 07D0     		beq	.L5
  51:Src/Modbus_Master/ringbuffer.c **** 		*pRingBuff->wp = value;
 134              		.loc 1 51 3 is_stmt 1 view .LVU35
 135              		.loc 1 51 18 is_stmt 0 view .LVU36
 136 0012 1170     		strb	r1, [r2]
  52:Src/Modbus_Master/ringbuffer.c **** 		pRingBuff->wp = wp_next;
 137              		.loc 1 52 3 is_stmt 1 view .LVU37
 138              		.loc 1 52 17 is_stmt 0 view .LVU38
 139 0014 8360     		str	r3, [r0, #8]
 140              	.LVL4:
 141              	.L3:
  53:Src/Modbus_Master/ringbuffer.c **** 	} else {
  54:Src/Modbus_Master/ringbuffer.c **** 		pRingBuff->flagOverflow = 1;
  55:Src/Modbus_Master/ringbuffer.c **** 	}
  56:Src/Modbus_Master/ringbuffer.c **** }
 142              		.loc 1 56 1 view .LVU39
 143 0016 5DF8044B 		ldr	r4, [sp], #4
 144              	.LCFI1:
 145              		.cfi_remember_state
 146              		.cfi_restore 4
 147              		.cfi_def_cfa_offset 0
 148 001a 7047     		bx	lr
 149              	.LVL5:
 150              	.L8:
 151              	.LCFI2:
 152              		.cfi_restore_state
  48:Src/Modbus_Master/ringbuffer.c **** 	}
 153              		.loc 1 48 3 is_stmt 1 view .LVU40
  48:Src/Modbus_Master/ringbuffer.c **** 	}
 154              		.loc 1 48 23 is_stmt 0 view .LVU41
 155 001c 048A     		ldrh	r4, [r0, #16]
  48:Src/Modbus_Master/ringbuffer.c **** 	}
 156              		.loc 1 48 11 view .LVU42
 157 001e 1B1B     		subs	r3, r3, r4
 158              	.LVL6:
  48:Src/Modbus_Master/ringbuffer.c **** 	}
 159              		.loc 1 48 11 view .LVU43
 160 0020 F4E7     		b	.L4
 161              	.L5:
  54:Src/Modbus_Master/ringbuffer.c **** 	}
 162              		.loc 1 54 3 is_stmt 1 view .LVU44
  54:Src/Modbus_Master/ringbuffer.c **** 	}
 163              		.loc 1 54 27 is_stmt 0 view .LVU45
 164 0022 0123     		movs	r3, #1
 165              	.LVL7:
  54:Src/Modbus_Master/ringbuffer.c **** 	}
 166              		.loc 1 54 27 view .LVU46
 167 0024 8374     		strb	r3, [r0, #18]
 168              		.loc 1 56 1 view .LVU47
 169 0026 F6E7     		b	.L3
 170              		.cfi_endproc
ARM GAS  C:\Users\andywei\AppData\Local\Temp\cc22ulNc.s 			page 5


 171              	.LFE137:
 173              		.section	.text.rbPop,"ax",%progbits
 174              		.align	1
 175              		.global	rbPop
 176              		.syntax unified
 177              		.thumb
 178              		.thumb_func
 179              		.fpu fpv4-sp-d16
 181              	rbPop:
 182              	.LVL8:
 183              	.LFB138:
  57:Src/Modbus_Master/ringbuffer.c **** 
  58:Src/Modbus_Master/ringbuffer.c **** /**
  59:Src/Modbus_Master/ringbuffer.c ****   * @brief  压出单字节到缓冲区
  60:Src/Modbus_Master/ringbuffer.c ****   * @param  pRingBuff：待处理的ringbuffer   
  61:Src/Modbus_Master/ringbuffer.c ****   * @note   
  62:Src/Modbus_Master/ringbuffer.c ****   * @retval 压出的数据
  63:Src/Modbus_Master/ringbuffer.c ****   * @author xiaodaqi
  64:Src/Modbus_Master/ringbuffer.c ****   */	
  65:Src/Modbus_Master/ringbuffer.c ****  uint8_t rbPop(RingBuffer* pRingBuff)
  66:Src/Modbus_Master/ringbuffer.c **** {
 184              		.loc 1 66 1 is_stmt 1 view -0
 185              		.cfi_startproc
 186              		@ args = 0, pretend = 0, frame = 0
 187              		@ frame_needed = 0, uses_anonymous_args = 0
 188              		@ link register save eliminated.
 189              		.loc 1 66 1 is_stmt 0 view .LVU49
 190 0000 0346     		mov	r3, r0
  67:Src/Modbus_Master/ringbuffer.c **** 	if( pRingBuff->rp == pRingBuff->wp ) return 0; // empty
 191              		.loc 1 67 2 is_stmt 1 view .LVU50
 192              		.loc 1 67 15 is_stmt 0 view .LVU51
 193 0002 C268     		ldr	r2, [r0, #12]
 194              		.loc 1 67 32 view .LVU52
 195 0004 8168     		ldr	r1, [r0, #8]
 196              		.loc 1 67 4 view .LVU53
 197 0006 8A42     		cmp	r2, r1
 198 0008 0AD0     		beq	.L11
  68:Src/Modbus_Master/ringbuffer.c ****   
  69:Src/Modbus_Master/ringbuffer.c **** 	uint8_t ret = *(pRingBuff->rp++);
 199              		.loc 1 69 2 is_stmt 1 view .LVU54
 200              		.loc 1 69 31 is_stmt 0 view .LVU55
 201 000a 511C     		adds	r1, r2, #1
 202 000c C160     		str	r1, [r0, #12]
 203              		.loc 1 69 10 view .LVU56
 204 000e 1078     		ldrb	r0, [r2]	@ zero_extendqisi2
 205              	.LVL9:
  70:Src/Modbus_Master/ringbuffer.c **** 	if( pRingBuff->rp == pRingBuff->pEnd ) {
 206              		.loc 1 70 2 is_stmt 1 view .LVU57
 207              		.loc 1 70 32 is_stmt 0 view .LVU58
 208 0010 5A68     		ldr	r2, [r3, #4]
 209              		.loc 1 70 4 view .LVU59
 210 0012 9142     		cmp	r1, r2
 211 0014 00D0     		beq	.L12
 212              	.LVL10:
 213              	.L10:
  71:Src/Modbus_Master/ringbuffer.c **** 		pRingBuff->rp -= pRingBuff->length; // Rewind pointer when exceeds bound
  72:Src/Modbus_Master/ringbuffer.c **** 	}
ARM GAS  C:\Users\andywei\AppData\Local\Temp\cc22ulNc.s 			page 6


  73:Src/Modbus_Master/ringbuffer.c **** 	return ret;
  74:Src/Modbus_Master/ringbuffer.c **** }
 214              		.loc 1 74 1 view .LVU60
 215 0016 7047     		bx	lr
 216              	.LVL11:
 217              	.L12:
  71:Src/Modbus_Master/ringbuffer.c **** 		pRingBuff->rp -= pRingBuff->length; // Rewind pointer when exceeds bound
 218              		.loc 1 71 3 is_stmt 1 view .LVU61
  71:Src/Modbus_Master/ringbuffer.c **** 		pRingBuff->rp -= pRingBuff->length; // Rewind pointer when exceeds bound
 219              		.loc 1 71 29 is_stmt 0 view .LVU62
 220 0018 1A8A     		ldrh	r2, [r3, #16]
  71:Src/Modbus_Master/ringbuffer.c **** 		pRingBuff->rp -= pRingBuff->length; // Rewind pointer when exceeds bound
 221              		.loc 1 71 17 view .LVU63
 222 001a 891A     		subs	r1, r1, r2
 223 001c D960     		str	r1, [r3, #12]
 224 001e 7047     		bx	lr
 225              	.LVL12:
 226              	.L11:
  67:Src/Modbus_Master/ringbuffer.c ****   
 227              		.loc 1 67 46 view .LVU64
 228 0020 0020     		movs	r0, #0
 229              	.LVL13:
  67:Src/Modbus_Master/ringbuffer.c ****   
 230              		.loc 1 67 46 view .LVU65
 231 0022 F8E7     		b	.L10
 232              		.cfi_endproc
 233              	.LFE138:
 235              		.section	.text.rbGetCount,"ax",%progbits
 236              		.align	1
 237              		.global	rbGetCount
 238              		.syntax unified
 239              		.thumb
 240              		.thumb_func
 241              		.fpu fpv4-sp-d16
 243              	rbGetCount:
 244              	.LVL14:
 245              	.LFB139:
  75:Src/Modbus_Master/ringbuffer.c **** 
  76:Src/Modbus_Master/ringbuffer.c **** /**
  77:Src/Modbus_Master/ringbuffer.c ****   * @brief  获取缓冲区尚未处理的字节数
  78:Src/Modbus_Master/ringbuffer.c ****   * @param  pRingBuff：待处理的ringbuffer   
  79:Src/Modbus_Master/ringbuffer.c ****   * @note   
  80:Src/Modbus_Master/ringbuffer.c ****   * @retval 待处理的字节数
  81:Src/Modbus_Master/ringbuffer.c ****   * @author xiaodaqi
  82:Src/Modbus_Master/ringbuffer.c ****   */
  83:Src/Modbus_Master/ringbuffer.c ****  uint16_t rbGetCount(const RingBuffer* pRingBuff)
  84:Src/Modbus_Master/ringbuffer.c **** {
 246              		.loc 1 84 1 is_stmt 1 view -0
 247              		.cfi_startproc
 248              		@ args = 0, pretend = 0, frame = 0
 249              		@ frame_needed = 0, uses_anonymous_args = 0
 250              		@ link register save eliminated.
  85:Src/Modbus_Master/ringbuffer.c **** 	return (pRingBuff->wp - pRingBuff->rp + pRingBuff->length) % pRingBuff->length;
 251              		.loc 1 85 2 view .LVU67
 252              		.loc 1 85 19 is_stmt 0 view .LVU68
 253 0000 8368     		ldr	r3, [r0, #8]
 254              		.loc 1 85 35 view .LVU69
ARM GAS  C:\Users\andywei\AppData\Local\Temp\cc22ulNc.s 			page 7


 255 0002 C268     		ldr	r2, [r0, #12]
 256              		.loc 1 85 24 view .LVU70
 257 0004 9B1A     		subs	r3, r3, r2
 258              		.loc 1 85 51 view .LVU71
 259 0006 028A     		ldrh	r2, [r0, #16]
 260              		.loc 1 85 40 view .LVU72
 261 0008 9818     		adds	r0, r3, r2
 262              	.LVL15:
 263              		.loc 1 85 61 view .LVU73
 264 000a 90FBF2F3 		sdiv	r3, r0, r2
 265 000e 02FB1300 		mls	r0, r2, r3, r0
  86:Src/Modbus_Master/ringbuffer.c **** }
 266              		.loc 1 86 1 view .LVU74
 267 0012 80B2     		uxth	r0, r0
 268 0014 7047     		bx	lr
 269              		.cfi_endproc
 270              	.LFE139:
 272              		.section	.text.rbIsEmpty,"ax",%progbits
 273              		.align	1
 274              		.global	rbIsEmpty
 275              		.syntax unified
 276              		.thumb
 277              		.thumb_func
 278              		.fpu fpv4-sp-d16
 280              	rbIsEmpty:
 281              	.LVL16:
 282              	.LFB140:
  87:Src/Modbus_Master/ringbuffer.c **** 
  88:Src/Modbus_Master/ringbuffer.c **** /**
  89:Src/Modbus_Master/ringbuffer.c ****   * @brief  判断缓冲区是否为空
  90:Src/Modbus_Master/ringbuffer.c ****   * @param  pRingBuff：待处理的ringbuffer   
  91:Src/Modbus_Master/ringbuffer.c ****   * @note   
  92:Src/Modbus_Master/ringbuffer.c ****   * @retval 空为1；否则为0
  93:Src/Modbus_Master/ringbuffer.c ****   * @author xiaodaqi
  94:Src/Modbus_Master/ringbuffer.c ****   */
  95:Src/Modbus_Master/ringbuffer.c ****  int8_t rbIsEmpty(const RingBuffer* pRingBuff)
  96:Src/Modbus_Master/ringbuffer.c **** {
 283              		.loc 1 96 1 is_stmt 1 view -0
 284              		.cfi_startproc
 285              		@ args = 0, pretend = 0, frame = 0
 286              		@ frame_needed = 0, uses_anonymous_args = 0
 287              		@ link register save eliminated.
  97:Src/Modbus_Master/ringbuffer.c **** 	return pRingBuff->wp == pRingBuff->rp; 
 288              		.loc 1 97 2 view .LVU76
 289              		.loc 1 97 18 is_stmt 0 view .LVU77
 290 0000 8268     		ldr	r2, [r0, #8]
 291              		.loc 1 97 35 view .LVU78
 292 0002 C068     		ldr	r0, [r0, #12]
 293              	.LVL17:
  98:Src/Modbus_Master/ringbuffer.c **** }
 294              		.loc 1 98 1 view .LVU79
 295 0004 8242     		cmp	r2, r0
 296 0006 14BF     		ite	ne
 297 0008 0020     		movne	r0, #0
 298 000a 0120     		moveq	r0, #1
 299 000c 7047     		bx	lr
 300              		.cfi_endproc
ARM GAS  C:\Users\andywei\AppData\Local\Temp\cc22ulNc.s 			page 8


 301              	.LFE140:
 303              		.section	.text.rbIsFull,"ax",%progbits
 304              		.align	1
 305              		.global	rbIsFull
 306              		.syntax unified
 307              		.thumb
 308              		.thumb_func
 309              		.fpu fpv4-sp-d16
 311              	rbIsFull:
 312              	.LVL18:
 313              	.LFB141:
  99:Src/Modbus_Master/ringbuffer.c **** 
 100:Src/Modbus_Master/ringbuffer.c **** /**
 101:Src/Modbus_Master/ringbuffer.c ****   * @brief  判断缓冲区是否空
 102:Src/Modbus_Master/ringbuffer.c ****   * @param  pRingBuff：待处理的ringbuffer   
 103:Src/Modbus_Master/ringbuffer.c ****   * @note   
 104:Src/Modbus_Master/ringbuffer.c ****   * @retval 满为1；否则为0
 105:Src/Modbus_Master/ringbuffer.c ****   * @author xiaodaqi
 106:Src/Modbus_Master/ringbuffer.c ****   */
 107:Src/Modbus_Master/ringbuffer.c ****  int8_t rbIsFull(const RingBuffer* pRingBuff)
 108:Src/Modbus_Master/ringbuffer.c **** {
 314              		.loc 1 108 1 is_stmt 1 view -0
 315              		.cfi_startproc
 316              		@ args = 0, pretend = 0, frame = 0
 317              		@ frame_needed = 0, uses_anonymous_args = 0
 318              		@ link register save eliminated.
 109:Src/Modbus_Master/ringbuffer.c ****  	return (pRingBuff->rp - pRingBuff->wp + pRingBuff->length - 1) % pRingBuff->length == 0;
 319              		.loc 1 109 3 view .LVU81
 320              		.loc 1 109 20 is_stmt 0 view .LVU82
 321 0000 C368     		ldr	r3, [r0, #12]
 322              		.loc 1 109 36 view .LVU83
 323 0002 8268     		ldr	r2, [r0, #8]
 324              		.loc 1 109 25 view .LVU84
 325 0004 9B1A     		subs	r3, r3, r2
 326              		.loc 1 109 52 view .LVU85
 327 0006 028A     		ldrh	r2, [r0, #16]
 328              		.loc 1 109 41 view .LVU86
 329 0008 9818     		adds	r0, r3, r2
 330              	.LVL19:
 331              		.loc 1 109 61 view .LVU87
 332 000a 0138     		subs	r0, r0, #1
 333              		.loc 1 109 66 view .LVU88
 334 000c 90FBF2F3 		sdiv	r3, r0, r2
 335 0010 02FB1300 		mls	r0, r2, r3, r0
 110:Src/Modbus_Master/ringbuffer.c **** }
 336              		.loc 1 110 1 view .LVU89
 337 0014 B0FA80F0 		clz	r0, r0
 338 0018 4009     		lsrs	r0, r0, #5
 339 001a 7047     		bx	lr
 340              		.cfi_endproc
 341              	.LFE141:
 343              		.text
 344              	.Letext0:
 345              		.file 2 "c:\\gnu arm embedded toolchain\\9 2020-q2-update\\arm-none-eabi\\include\\machine\\_defau
 346              		.file 3 "c:\\gnu arm embedded toolchain\\9 2020-q2-update\\arm-none-eabi\\include\\sys\\_stdint.h"
 347              		.file 4 "Drivers/CMSIS/Include/core_cm4.h"
 348              		.file 5 "Drivers/CMSIS/Device/ST/STM32L4xx/Include/system_stm32l4xx.h"
ARM GAS  C:\Users\andywei\AppData\Local\Temp\cc22ulNc.s 			page 9


 349              		.file 6 "Drivers/STM32L4xx_HAL_Driver/Inc/stm32l4xx_hal_def.h"
 350              		.file 7 "Drivers/STM32L4xx_HAL_Driver/Inc/stm32l4xx_hal_flash.h"
 351              		.file 8 "Drivers/STM32L4xx_HAL_Driver/Inc/stm32l4xx_hal.h"
 352              		.file 9 "c:\\gnu arm embedded toolchain\\9 2020-q2-update\\lib\\gcc\\arm-none-eabi\\9.3.1\\include
 353              		.file 10 "c:\\gnu arm embedded toolchain\\9 2020-q2-update\\arm-none-eabi\\include\\sys\\_types.h"
 354              		.file 11 "c:\\gnu arm embedded toolchain\\9 2020-q2-update\\arm-none-eabi\\include\\sys\\reent.h"
 355              		.file 12 "c:\\gnu arm embedded toolchain\\9 2020-q2-update\\arm-none-eabi\\include\\sys\\lock.h"
 356              		.file 13 "Src/Modbus_Master/ringbuffer.h"
ARM GAS  C:\Users\andywei\AppData\Local\Temp\cc22ulNc.s 			page 10

