ARM GAS  C:\Users\andywei\AppData\Local\Temp\ccotUGAq.s 			page 1


   1              		.cpu cortex-m4
   2              		.eabi_attribute 27, 1
   3              		.eabi_attribute 28, 1
   4              		.eabi_attribute 20, 1
   5              		.eabi_attribute 21, 1
   6              		.eabi_attribute 23, 3
   7              		.eabi_attribute 24, 1
   8              		.eabi_attribute 25, 1
   9              		.eabi_attribute 26, 1
  10              		.eabi_attribute 30, 1
  11              		.eabi_attribute 34, 1
  12              		.eabi_attribute 18, 4
  13              		.file	"sys_queue.c"
  14              		.text
  15              	.Ltext0:
  16              		.cfi_sections	.debug_frame
  17              		.section	.text.queue_init,"ax",%progbits
  18              		.align	1
  19              		.global	queue_init
  20              		.arch armv7e-m
  21              		.syntax unified
  22              		.thumb
  23              		.thumb_func
  24              		.fpu fpv4-sp-d16
  26              	queue_init:
  27              	.LVL0:
  28              	.LFB135:
  29              		.file 1 "Src/SYS/sys_queue.c"
   1:Src/SYS/sys_queue.c **** /**
   2:Src/SYS/sys_queue.c ****   ******************************************************************************
   3:Src/SYS/sys_queue.c ****   * @file:      sys_queue.c
   4:Src/SYS/sys_queue.c ****   * @author:    Cat
   5:Src/SYS/sys_queue.c ****   * @version:   V1.0
   6:Src/SYS/sys_queue.c ****   * @date:      2018-1-18
   7:Src/SYS/sys_queue.c ****   * @brief:     queue
   8:Src/SYS/sys_queue.c ****   * @attention:
   9:Src/SYS/sys_queue.c ****   ******************************************************************************
  10:Src/SYS/sys_queue.c ****   */
  11:Src/SYS/sys_queue.c **** 
  12:Src/SYS/sys_queue.c **** 
  13:Src/SYS/sys_queue.c **** #include "sys_queue.h"
  14:Src/SYS/sys_queue.c **** 
  15:Src/SYS/sys_queue.c **** 
  16:Src/SYS/sys_queue.c **** /**
  17:Src/SYS/sys_queue.c ****  * @brief  queue_init
  18:Src/SYS/sys_queue.c ****  * @param  Front , Rear , PBase , Len
  19:Src/SYS/sys_queue.c ****  * @retval True
  20:Src/SYS/sys_queue.c ****  */
  21:Src/SYS/sys_queue.c **** uint8_t queue_init(uint16_t *Front, uint16_t *Rear, uint8_t *PBase, uint16_t Len)
  22:Src/SYS/sys_queue.c **** {
  30              		.loc 1 22 1 view -0
  31              		.cfi_startproc
  32              		@ args = 0, pretend = 0, frame = 0
  33              		@ frame_needed = 0, uses_anonymous_args = 0
  34              		@ link register save eliminated.
  35              		.loc 1 22 1 is_stmt 0 view .LVU1
  36 0000 30B4     		push	{r4, r5}
ARM GAS  C:\Users\andywei\AppData\Local\Temp\ccotUGAq.s 			page 2


  37              	.LCFI0:
  38              		.cfi_def_cfa_offset 8
  39              		.cfi_offset 4, -8
  40              		.cfi_offset 5, -4
  23:Src/SYS/sys_queue.c ****     uint16_t index;
  41              		.loc 1 23 5 is_stmt 1 view .LVU2
  24:Src/SYS/sys_queue.c **** 
  25:Src/SYS/sys_queue.c ****     for(index = 0; index < Len; index++) {
  42              		.loc 1 25 5 view .LVU3
  43              	.LVL1:
  44              		.loc 1 25 15 is_stmt 0 view .LVU4
  45 0002 0024     		movs	r4, #0
  46              	.LVL2:
  47              	.L2:
  48              		.loc 1 25 20 is_stmt 1 discriminator 1 view .LVU5
  49              		.loc 1 25 5 is_stmt 0 discriminator 1 view .LVU6
  50 0004 9C42     		cmp	r4, r3
  51 0006 04D2     		bcs	.L5
  26:Src/SYS/sys_queue.c ****         PBase[index] = NULL;
  52              		.loc 1 26 9 is_stmt 1 discriminator 3 view .LVU7
  53              		.loc 1 26 22 is_stmt 0 discriminator 3 view .LVU8
  54 0008 0025     		movs	r5, #0
  55 000a 1555     		strb	r5, [r2, r4]
  25:Src/SYS/sys_queue.c ****         PBase[index] = NULL;
  56              		.loc 1 25 33 is_stmt 1 discriminator 3 view .LVU9
  25:Src/SYS/sys_queue.c ****         PBase[index] = NULL;
  57              		.loc 1 25 38 is_stmt 0 discriminator 3 view .LVU10
  58 000c 0134     		adds	r4, r4, #1
  59              	.LVL3:
  25:Src/SYS/sys_queue.c ****         PBase[index] = NULL;
  60              		.loc 1 25 38 discriminator 3 view .LVU11
  61 000e A4B2     		uxth	r4, r4
  62              	.LVL4:
  25:Src/SYS/sys_queue.c ****         PBase[index] = NULL;
  63              		.loc 1 25 38 discriminator 3 view .LVU12
  64 0010 F8E7     		b	.L2
  65              	.L5:
  27:Src/SYS/sys_queue.c ****     }
  28:Src/SYS/sys_queue.c **** 
  29:Src/SYS/sys_queue.c ****     *Front = *Rear = 0;
  66              		.loc 1 29 5 is_stmt 1 view .LVU13
  67              		.loc 1 29 20 is_stmt 0 view .LVU14
  68 0012 0023     		movs	r3, #0
  69              	.LVL5:
  70              		.loc 1 29 20 view .LVU15
  71 0014 0B80     		strh	r3, [r1]	@ movhi
  72              		.loc 1 29 12 view .LVU16
  73 0016 0380     		strh	r3, [r0]	@ movhi
  30:Src/SYS/sys_queue.c ****     return TRUE;
  74              		.loc 1 30 5 is_stmt 1 view .LVU17
  31:Src/SYS/sys_queue.c **** }
  75              		.loc 1 31 1 is_stmt 0 view .LVU18
  76 0018 0120     		movs	r0, #1
  77              	.LVL6:
  78              		.loc 1 31 1 view .LVU19
  79 001a 30BC     		pop	{r4, r5}
  80              	.LCFI1:
ARM GAS  C:\Users\andywei\AppData\Local\Temp\ccotUGAq.s 			page 3


  81              		.cfi_restore 5
  82              		.cfi_restore 4
  83              		.cfi_def_cfa_offset 0
  84              	.LVL7:
  85              		.loc 1 31 1 view .LVU20
  86 001c 7047     		bx	lr
  87              		.cfi_endproc
  88              	.LFE135:
  90              		.section	.text.queue_full,"ax",%progbits
  91              		.align	1
  92              		.global	queue_full
  93              		.syntax unified
  94              		.thumb
  95              		.thumb_func
  96              		.fpu fpv4-sp-d16
  98              	queue_full:
  99              	.LVL8:
 100              	.LFB136:
  32:Src/SYS/sys_queue.c **** 
  33:Src/SYS/sys_queue.c **** 
  34:Src/SYS/sys_queue.c **** /**
  35:Src/SYS/sys_queue.c ****  * @brief  queue_full
  36:Src/SYS/sys_queue.c ****  * @param  Front , Rear , PBase , Len
  37:Src/SYS/sys_queue.c ****  * @retval Result of Queue Operation as Enum
  38:Src/SYS/sys_queue.c ****  */
  39:Src/SYS/sys_queue.c **** uint8_t queue_full(uint16_t *Front, uint16_t *Rear, uint8_t *PBase, uint16_t Len)
  40:Src/SYS/sys_queue.c **** {
 101              		.loc 1 40 1 is_stmt 1 view -0
 102              		.cfi_startproc
 103              		@ args = 0, pretend = 0, frame = 0
 104              		@ frame_needed = 0, uses_anonymous_args = 0
 105              		@ link register save eliminated.
  41:Src/SYS/sys_queue.c ****     if((((*Rear) + 1) % Len) == *Front) {
 106              		.loc 1 41 5 view .LVU22
 107              		.loc 1 41 11 is_stmt 0 view .LVU23
 108 0000 0A88     		ldrh	r2, [r1]
 109              	.LVL9:
 110              		.loc 1 41 18 view .LVU24
 111 0002 0132     		adds	r2, r2, #1
 112              		.loc 1 41 23 view .LVU25
 113 0004 92FBF3F1 		sdiv	r1, r2, r3
 114              	.LVL10:
 115              		.loc 1 41 23 view .LVU26
 116 0008 03FB1123 		mls	r3, r3, r1, r2
 117              	.LVL11:
 118              		.loc 1 41 33 view .LVU27
 119 000c 0288     		ldrh	r2, [r0]
 120              		.loc 1 41 7 view .LVU28
 121 000e 9342     		cmp	r3, r2
 122 0010 01D0     		beq	.L9
  42:Src/SYS/sys_queue.c ****         return TRUE;
  43:Src/SYS/sys_queue.c ****     } else {
  44:Src/SYS/sys_queue.c ****         return FALSE;
 123              		.loc 1 44 16 view .LVU29
 124 0012 0020     		movs	r0, #0
 125              	.LVL12:
  45:Src/SYS/sys_queue.c ****     }
ARM GAS  C:\Users\andywei\AppData\Local\Temp\ccotUGAq.s 			page 4


  46:Src/SYS/sys_queue.c **** }
 126              		.loc 1 46 1 view .LVU30
 127 0014 7047     		bx	lr
 128              	.LVL13:
 129              	.L9:
  42:Src/SYS/sys_queue.c ****         return TRUE;
 130              		.loc 1 42 16 view .LVU31
 131 0016 0120     		movs	r0, #1
 132              	.LVL14:
  42:Src/SYS/sys_queue.c ****         return TRUE;
 133              		.loc 1 42 16 view .LVU32
 134 0018 7047     		bx	lr
 135              		.cfi_endproc
 136              	.LFE136:
 138              		.section	.text.queue_empty,"ax",%progbits
 139              		.align	1
 140              		.global	queue_empty
 141              		.syntax unified
 142              		.thumb
 143              		.thumb_func
 144              		.fpu fpv4-sp-d16
 146              	queue_empty:
 147              	.LVL15:
 148              	.LFB137:
  47:Src/SYS/sys_queue.c **** 
  48:Src/SYS/sys_queue.c **** /**
  49:Src/SYS/sys_queue.c ****  * @brief  queue_empty
  50:Src/SYS/sys_queue.c ****  * @param  Front , Rear , PBase , Len
  51:Src/SYS/sys_queue.c ****  * @retval Result of Queue Operation as Enum
  52:Src/SYS/sys_queue.c ****  */
  53:Src/SYS/sys_queue.c **** uint8_t queue_empty(uint16_t *Front, uint16_t *Rear, uint8_t *PBase, uint16_t Len)
  54:Src/SYS/sys_queue.c **** {
 149              		.loc 1 54 1 is_stmt 1 view -0
 150              		.cfi_startproc
 151              		@ args = 0, pretend = 0, frame = 0
 152              		@ frame_needed = 0, uses_anonymous_args = 0
 153              		@ link register save eliminated.
  55:Src/SYS/sys_queue.c ****     if(*Front == *Rear) {
 154              		.loc 1 55 5 view .LVU34
 155              		.loc 1 55 8 is_stmt 0 view .LVU35
 156 0000 0288     		ldrh	r2, [r0]
 157              	.LVL16:
 158              		.loc 1 55 18 view .LVU36
 159 0002 0B88     		ldrh	r3, [r1]
 160              	.LVL17:
 161              		.loc 1 55 7 view .LVU37
 162 0004 9A42     		cmp	r2, r3
 163 0006 01D0     		beq	.L13
  56:Src/SYS/sys_queue.c ****         return TRUE;
  57:Src/SYS/sys_queue.c ****     } else {
  58:Src/SYS/sys_queue.c ****         return FALSE;
 164              		.loc 1 58 16 view .LVU38
 165 0008 0020     		movs	r0, #0
 166              	.LVL18:
  59:Src/SYS/sys_queue.c ****     }
  60:Src/SYS/sys_queue.c **** }
 167              		.loc 1 60 1 view .LVU39
ARM GAS  C:\Users\andywei\AppData\Local\Temp\ccotUGAq.s 			page 5


 168 000a 7047     		bx	lr
 169              	.LVL19:
 170              	.L13:
  56:Src/SYS/sys_queue.c ****         return TRUE;
 171              		.loc 1 56 16 view .LVU40
 172 000c 0120     		movs	r0, #1
 173              	.LVL20:
  56:Src/SYS/sys_queue.c ****         return TRUE;
 174              		.loc 1 56 16 view .LVU41
 175 000e 7047     		bx	lr
 176              		.cfi_endproc
 177              	.LFE137:
 179              		.section	.text.queue_in,"ax",%progbits
 180              		.align	1
 181              		.global	queue_in
 182              		.syntax unified
 183              		.thumb
 184              		.thumb_func
 185              		.fpu fpv4-sp-d16
 187              	queue_in:
 188              	.LVL21:
 189              	.LFB138:
  61:Src/SYS/sys_queue.c **** 
  62:Src/SYS/sys_queue.c **** 
  63:Src/SYS/sys_queue.c **** /**
  64:Src/SYS/sys_queue.c ****  * @brief  queue_in
  65:Src/SYS/sys_queue.c ****  * @param  Front , Rear , PBase , Len
  66:Src/SYS/sys_queue.c ****  * @retval Result of Queue Operation as Enum
  67:Src/SYS/sys_queue.c ****  */
  68:Src/SYS/sys_queue.c **** uint8_t queue_in(uint16_t *Front, uint16_t *Rear, uint8_t *PBase, uint16_t Len, uint8_t *PData)
  69:Src/SYS/sys_queue.c **** {
 190              		.loc 1 69 1 is_stmt 1 view -0
 191              		.cfi_startproc
 192              		@ args = 4, pretend = 0, frame = 0
 193              		@ frame_needed = 0, uses_anonymous_args = 0
 194              		.loc 1 69 1 is_stmt 0 view .LVU43
 195 0000 70B5     		push	{r4, r5, r6, lr}
 196              	.LCFI2:
 197              		.cfi_def_cfa_offset 16
 198              		.cfi_offset 4, -16
 199              		.cfi_offset 5, -12
 200              		.cfi_offset 6, -8
 201              		.cfi_offset 14, -4
 202 0002 0C46     		mov	r4, r1
 203 0004 1646     		mov	r6, r2
 204 0006 1D46     		mov	r5, r3
  70:Src/SYS/sys_queue.c ****     //DISABLE_ALL_IRQ();
  71:Src/SYS/sys_queue.c **** 
  72:Src/SYS/sys_queue.c ****     if(queue_full(Front, Rear, PBase, Len)) {
 205              		.loc 1 72 5 is_stmt 1 view .LVU44
 206              		.loc 1 72 8 is_stmt 0 view .LVU45
 207 0008 FFF7FEFF 		bl	queue_full
 208              	.LVL22:
 209              		.loc 1 72 7 view .LVU46
 210 000c 60B9     		cbnz	r0, .L16
  73:Src/SYS/sys_queue.c ****         return FALSE;
  74:Src/SYS/sys_queue.c ****     }
ARM GAS  C:\Users\andywei\AppData\Local\Temp\ccotUGAq.s 			page 6


  75:Src/SYS/sys_queue.c **** 
  76:Src/SYS/sys_queue.c ****     PBase[*Rear] = *PData;
 211              		.loc 1 76 5 is_stmt 1 view .LVU47
 212              		.loc 1 76 11 is_stmt 0 view .LVU48
 213 000e 2388     		ldrh	r3, [r4]
 214              		.loc 1 76 20 view .LVU49
 215 0010 049A     		ldr	r2, [sp, #16]
 216 0012 1278     		ldrb	r2, [r2]	@ zero_extendqisi2
 217              		.loc 1 76 18 view .LVU50
 218 0014 F254     		strb	r2, [r6, r3]
  77:Src/SYS/sys_queue.c ****     *Rear = ((*Rear) + 1) % Len;
 219              		.loc 1 77 5 is_stmt 1 view .LVU51
 220              		.loc 1 77 15 is_stmt 0 view .LVU52
 221 0016 2388     		ldrh	r3, [r4]
 222              		.loc 1 77 22 view .LVU53
 223 0018 0133     		adds	r3, r3, #1
 224              		.loc 1 77 27 view .LVU54
 225 001a 93FBF5F2 		sdiv	r2, r3, r5
 226 001e 05FB1233 		mls	r3, r5, r2, r3
 227              		.loc 1 77 11 view .LVU55
 228 0022 2380     		strh	r3, [r4]	@ movhi
  78:Src/SYS/sys_queue.c **** 
  79:Src/SYS/sys_queue.c ****     //ENABLE_ALL_IRQ();
  80:Src/SYS/sys_queue.c **** 
  81:Src/SYS/sys_queue.c ****     return TRUE;
 229              		.loc 1 81 5 is_stmt 1 view .LVU56
 230              		.loc 1 81 12 is_stmt 0 view .LVU57
 231 0024 0120     		movs	r0, #1
 232              	.L15:
  82:Src/SYS/sys_queue.c **** }
 233              		.loc 1 82 1 view .LVU58
 234 0026 70BD     		pop	{r4, r5, r6, pc}
 235              	.LVL23:
 236              	.L16:
  73:Src/SYS/sys_queue.c ****     }
 237              		.loc 1 73 16 view .LVU59
 238 0028 0020     		movs	r0, #0
 239 002a FCE7     		b	.L15
 240              		.cfi_endproc
 241              	.LFE138:
 243              		.section	.text.queue_out,"ax",%progbits
 244              		.align	1
 245              		.global	queue_out
 246              		.syntax unified
 247              		.thumb
 248              		.thumb_func
 249              		.fpu fpv4-sp-d16
 251              	queue_out:
 252              	.LVL24:
 253              	.LFB139:
  83:Src/SYS/sys_queue.c **** 
  84:Src/SYS/sys_queue.c **** 
  85:Src/SYS/sys_queue.c **** /**
  86:Src/SYS/sys_queue.c ****  * @brief  queue_out
  87:Src/SYS/sys_queue.c ****  * @param  Front , Rear , PBase , Len
  88:Src/SYS/sys_queue.c ****  * @retval Result of Queue Operation as Enum
  89:Src/SYS/sys_queue.c ****  */
ARM GAS  C:\Users\andywei\AppData\Local\Temp\ccotUGAq.s 			page 7


  90:Src/SYS/sys_queue.c **** 
  91:Src/SYS/sys_queue.c **** uint8_t queue_out(uint16_t *Front, uint16_t *Rear, uint8_t *PBase, uint16_t Len, uint8_t *PData)
  92:Src/SYS/sys_queue.c **** {
 254              		.loc 1 92 1 is_stmt 1 view -0
 255              		.cfi_startproc
 256              		@ args = 4, pretend = 0, frame = 0
 257              		@ frame_needed = 0, uses_anonymous_args = 0
 258              		.loc 1 92 1 is_stmt 0 view .LVU61
 259 0000 70B5     		push	{r4, r5, r6, lr}
 260              	.LCFI3:
 261              		.cfi_def_cfa_offset 16
 262              		.cfi_offset 4, -16
 263              		.cfi_offset 5, -12
 264              		.cfi_offset 6, -8
 265              		.cfi_offset 14, -4
 266 0002 0446     		mov	r4, r0
 267 0004 1646     		mov	r6, r2
 268 0006 1D46     		mov	r5, r3
  93:Src/SYS/sys_queue.c ****     //DISABLE_ALL_IRQ();
  94:Src/SYS/sys_queue.c **** 
  95:Src/SYS/sys_queue.c ****     if(queue_empty(Front, Rear, PBase, Len)) {
 269              		.loc 1 95 5 is_stmt 1 view .LVU62
 270              		.loc 1 95 8 is_stmt 0 view .LVU63
 271 0008 FFF7FEFF 		bl	queue_empty
 272              	.LVL25:
 273              		.loc 1 95 7 view .LVU64
 274 000c 60B9     		cbnz	r0, .L20
  96:Src/SYS/sys_queue.c ****         return FALSE;
  97:Src/SYS/sys_queue.c ****     }
  98:Src/SYS/sys_queue.c **** 
  99:Src/SYS/sys_queue.c ****     *PData = PBase[*Front];
 275              		.loc 1 99 5 is_stmt 1 view .LVU65
 276              		.loc 1 99 20 is_stmt 0 view .LVU66
 277 000e 2388     		ldrh	r3, [r4]
 278              		.loc 1 99 19 view .LVU67
 279 0010 F25C     		ldrb	r2, [r6, r3]	@ zero_extendqisi2
 280              		.loc 1 99 12 view .LVU68
 281 0012 049B     		ldr	r3, [sp, #16]
 282 0014 1A70     		strb	r2, [r3]
 100:Src/SYS/sys_queue.c ****     *Front = ((*Front) + 1) % Len;
 283              		.loc 1 100 5 is_stmt 1 view .LVU69
 284              		.loc 1 100 16 is_stmt 0 view .LVU70
 285 0016 2388     		ldrh	r3, [r4]
 286              		.loc 1 100 24 view .LVU71
 287 0018 0133     		adds	r3, r3, #1
 288              		.loc 1 100 29 view .LVU72
 289 001a 93FBF5F2 		sdiv	r2, r3, r5
 290 001e 05FB1233 		mls	r3, r5, r2, r3
 291              		.loc 1 100 12 view .LVU73
 292 0022 2380     		strh	r3, [r4]	@ movhi
 101:Src/SYS/sys_queue.c **** 
 102:Src/SYS/sys_queue.c ****     //ENABLE_ALL_IRQ();
 103:Src/SYS/sys_queue.c **** 
 104:Src/SYS/sys_queue.c ****     return TRUE;
 293              		.loc 1 104 5 is_stmt 1 view .LVU74
 294              		.loc 1 104 12 is_stmt 0 view .LVU75
 295 0024 0120     		movs	r0, #1
ARM GAS  C:\Users\andywei\AppData\Local\Temp\ccotUGAq.s 			page 8


 296              	.L19:
 105:Src/SYS/sys_queue.c **** }
 297              		.loc 1 105 1 view .LVU76
 298 0026 70BD     		pop	{r4, r5, r6, pc}
 299              	.LVL26:
 300              	.L20:
  96:Src/SYS/sys_queue.c ****     }
 301              		.loc 1 96 16 view .LVU77
 302 0028 0020     		movs	r0, #0
 303 002a FCE7     		b	.L19
 304              		.cfi_endproc
 305              	.LFE139:
 307              		.text
 308              	.Letext0:
 309              		.file 2 "c:\\gnu arm embedded toolchain\\9 2020-q2-update\\arm-none-eabi\\include\\machine\\_defau
 310              		.file 3 "c:\\gnu arm embedded toolchain\\9 2020-q2-update\\arm-none-eabi\\include\\sys\\_stdint.h"
 311              		.file 4 "c:\\gnu arm embedded toolchain\\9 2020-q2-update\\lib\\gcc\\arm-none-eabi\\9.3.1\\include
 312              		.file 5 "c:\\gnu arm embedded toolchain\\9 2020-q2-update\\arm-none-eabi\\include\\sys\\_types.h"
 313              		.file 6 "c:\\gnu arm embedded toolchain\\9 2020-q2-update\\arm-none-eabi\\include\\sys\\reent.h"
 314              		.file 7 "c:\\gnu arm embedded toolchain\\9 2020-q2-update\\arm-none-eabi\\include\\sys\\lock.h"
 315              		.file 8 "c:\\gnu arm embedded toolchain\\9 2020-q2-update\\arm-none-eabi\\include\\ctype.h"
 316              		.file 9 "c:\\gnu arm embedded toolchain\\9 2020-q2-update\\arm-none-eabi\\include\\time.h"
 317              		.file 10 "Drivers/CMSIS/Include/core_cm4.h"
 318              		.file 11 "Drivers/CMSIS/Device/ST/STM32L4xx/Include/system_stm32l4xx.h"
 319              		.file 12 "Drivers/STM32L4xx_HAL_Driver/Inc/stm32l4xx_hal_def.h"
 320              		.file 13 "Drivers/STM32L4xx_HAL_Driver/Inc/stm32l4xx_hal_flash.h"
 321              		.file 14 "Drivers/STM32L4xx_HAL_Driver/Inc/stm32l4xx_hal.h"
ARM GAS  C:\Users\andywei\AppData\Local\Temp\ccotUGAq.s 			page 9

